Component: ARM Compiler 5.06 update 6 (build 750) Tool: armlink [4d35ed]

==============================================================================

Section Cross References

    main.o(.text) refers to _printf_percent.o(.ARM.Collect$$_printf_percent$$00000000) for _printf_percent
    main.o(.text) refers to _printf_d.o(.ARM.Collect$$_printf_percent$$00000009) for _printf_d
    main.o(.text) refers to _printf_dec.o(.text) for _printf_int_dec
    main.o(.text) refers to io.o(.text) for IReadAllFilter
    main.o(.text) refers to memmng.o(.text) for memmng_test
    main.o(.text) refers to cdv_array.o(.text) for LIST_Test
    main.o(.text) refers to cascade.o(.text) for CoilToCoil
    main.o(.text) refers to delay.o(.text) for TaskSched
    main.o(.text) refers to led.o(.text) for OUT_DisPlay
    main.o(.text) refers to worker.o(.text) for ManagerControl
    main.o(.text) refers to cdv_define.o(.text) for CmdArgInit
    main.o(.text) refers to cmdparse.o(.text) for CmdParse
    main.o(.text) refers to mainuart.o(.text) for ClearOnlineCmdCache
    main.o(.text) refers to basic_resource.o(.text) for DoResRequest
    main.o(.text) refers to rt_memclr_w.o(.text) for __aeabi_memclr4
    main.o(.text) refers to os_task.o(.text) for OS_TaskSuspend
    main.o(.text) refers to uartx.o(.text) for USARTSend
    main.o(.text) refers to uart3.o(.text) for GetUsartRxLen
    main.o(.text) refers to time.o(.text) for ReadClock1ms
    main.o(.text) refers to main.o(.data) for debug
    main.o(.text) refers to modbus.o(.bss) for g_modbusCoil
    main.o(.text) refers to mainuart.o(.bss) for g_olCache
    main.o(.text) refers to cascade.o(.bss) for g_portCmdCache
    main.o(.text) refers to cdv_define.o(.bss) for TaskParseTCB
    main.o(.text) refers to cdv_define.o(.data) for tm1Re
    main.o(.text) refers to uart3.o(.data) for g_Usart3RxLen
    main.o(.text) refers to adc.o(.text) for Adc_Voltge
    main.o(.text) refers to dac.o(.text) for UpdateDacVal
    main.o(.text) refers to stm32f4xx_gpio.o(.text) for GPIO_ReadInputDataBit
    main.o(.text) refers to lan8720.o(.text) for Eth_Link_query
    main.o(.text) refers to cdv_config.o(.text) for com_print
    main.o(.text) refers to cpu_core.o(.text) for CPU_Init
    main.o(.text) refers to os_core.o(.text) for OSSchedRoundRobinCfg
    main.o(.text) refers to os_sem.o(.text) for OSSemCreate
    main.o(.text) refers to noretval__2sprintf.o(.text) for __2sprintf
    main.o(.text) refers to os_tmr.o(.text) for OSTmrCreate
    main.o(.text) refers to misc.o(.text) for NVIC_PriorityGroupConfig
    main.o(.text) refers to sysdef.o(.emb_text) for INTX_DISABLE
    main.o(.text) refers to lwip_comm.o(.text) for LwIP_Init
    main.o(.text) refers to tcp_server.o(.text) for tcp_server_init
    main.o(.text) refers to httpd.o(.text) for httpd_init
    main.o(.text) refers to udpmain.o(.text) for udpecho_init
    main.o(.text) refers to cpu_a.o(.text) for CPU_SR_Save
    main.o(.text) refers to io.o(.bss) for g_dipSW
    main.o(.text) refers to cdv_config.o(.data) for g_dipCtrlWorker
    main.o(.text) refers to main.o(.bss) for USART_TASK_STK
    cdv_config.o(.text) refers to _printf_percent.o(.ARM.Collect$$_printf_percent$$00000000) for _printf_percent
    cdv_config.o(.text) refers to _printf_d.o(.ARM.Collect$$_printf_percent$$00000009) for _printf_d
    cdv_config.o(.text) refers to _printf_s.o(.ARM.Collect$$_printf_percent$$00000014) for _printf_s
    cdv_config.o(.text) refers to _printf_dec.o(.text) for _printf_int_dec
    cdv_config.o(.text) refers to _printf_str.o(.text) for _printf_str
    cdv_config.o(.text) refers to io.o(.text) for GPIO_Configuration
    cdv_config.o(.text) refers to basic_resource.o(.text) for CdvInit
    cdv_config.o(.text) refers to spix.o(.text) for SPI_Configuration
    cdv_config.o(.text) refers to time.o(.text) for TIM3_Init
    cdv_config.o(.text) refers to led.o(.text) for LED_Init
    cdv_config.o(.text) refers to adc.o(.text) for ADC1_DMA_Init
    cdv_config.o(.text) refers to dac.o(.text) for Dac1_Init
    cdv_config.o(.text) refers to dac7512.o(.text) for DAC7512_Pin_Config
    cdv_config.o(.text) refers to stm32f4xx_gpio.o(.text) for GPIO_ResetBits
    cdv_config.o(.text) refers to uartx.o(.text) for USART_Configuration
    cdv_config.o(.text) refers to malloc.o(.text) for mymem_init
    cdv_config.o(.text) refers to stm32f4xx_rcc.o(.text) for RCC_AHB1PeriphResetCmd
    cdv_config.o(.text) refers to sysmng.o(.text) for ResetCdv
    cdv_config.o(.text) refers to os_sem.o(.text) for OSSemPend
    cdv_config.o(.text) refers to h1_free.o(.text) for free
    cdv_config.o(.text) refers to h1_alloc.o(.text) for malloc
    cdv_config.o(.text) refers to rt_memclr.o(.text) for __aeabi_memclr
    cdv_config.o(.text) refers to h1_realloc.o(.text) for realloc
    cdv_config.o(.text) refers to rt_memclr_w.o(.text) for __aeabi_memclr4
    cdv_config.o(.text) refers to noretval__2sprintf.o(.text) for __2sprintf
    cdv_config.o(.text) refers to strlen.o(.text) for strlen
    cdv_config.o(.text) refers to offline.o(.text) for LineInit
    cdv_config.o(.text) refers to var.o(.text) for FlashToVal
    cdv_config.o(.text) refers to cascade.o(.text) for GetTable
    cdv_config.o(.text) refers to flash.o(.text) for SPI_Flash_Read
    cdv_config.o(.text) refers to cdv_define.o(.data) for g_cdvStat
    cdv_config.o(.text) refers to cdv_define.o(.bss) for MEM_SEM
    cdv_config.o(.text) refers to cdv_config.o(.constdata) for __FUNCTION__
    cdv_config.o(.text) refers to cdv_config.o(.data) for isInited
    cdv_config.o(.text) refers to alarm.o(.data) for Alarmflag
    cdv_define.o(.text) refers to rt_memclr_w.o(.text) for __aeabi_memclr4
    cdv_define.o(.text) refers to cascade.o(.text) for CascadeGetNativeNo
    cdv_define.o(.text) refers to varexp.o(.text) for Init
    cdv_define.o(.text) refers to cdv_config.o(.text) for DelMemory
    cdv_define.o(.data) refers to cdv_define.o(.conststring) for .conststring
    offline.o(.text) refers to flash.o(.text) for SPI_Flash_Read
    offline.o(.text) refers to malloc.o(.text) for myfree
    offline.o(.text) refers to cdv_config.o(.text) for assert
    offline.o(.text) refers to newscript.o(.text) for GetLineInfo
    offline.o(.text) refers to cascade.o(.text) for CascadeModbus_MapInit
    offline.o(.text) refers to newscript.o(.bss) for g_line
    offline.o(.text) refers to offline.o(.data) for OfflineScriptLen
    offline.o(.text) refers to offline.o(.constdata) for __FUNCTION__
    basic_resource.o(.text) refers to io.o(.text) for IOInit
    basic_resource.o(.text) refers to rt_memclr.o(.text) for __aeabi_memclr
    basic_resource.o(.text) refers to cdv_config.o(.text) for MemCpy
    basic_resource.o(.text) refers to universalscom.o(.text) for ClearUniversalCnt
    basic_resource.o(.text) refers to var.o(.text) for ValCmd
    basic_resource.o(.text) refers to logic.o(.text) for LogicScript
    basic_resource.o(.text) refers to time.o(.text) for TimeCmd
    basic_resource.o(.text) refers to msg.o(.text) for MsgCmd
    basic_resource.o(.text) refers to adc.o(.text) for AdcCmd
    basic_resource.o(.text) refers to dac.o(.text) for DacCmd
    basic_resource.o(.text) refers to worker.o(.text) for WorkerCmd
    basic_resource.o(.text) refers to sysmng.o(.text) for SysCmd
    basic_resource.o(.text) refers to delay.o(.text) for TaskSched
    basic_resource.o(.text) refers to mainuart.o(.text) for AddTx
    basic_resource.o(.text) refers to modbus.o(.bss) for g_modbusCoil
    basic_resource.o(.text) refers to io.o(.data) for g_i
    basic_resource.o(.text) refers to io.o(.bss) for g_pluse
    fpga_spi.o(.text) refers to cdv_config.o(.text) for assert
    fpga_spi.o(.text) refers to spix.o(.text) for SPIx_ReadWriteByte
    fpga_spi.o(.text) refers to spi2.o(.text) for SPI2_Configuration
    fpga_spi.o(.text) refers to stm32f4xx_gpio.o(.text) for GPIO_SetBits
    fpga_spi.o(.text) refers to os_sem.o(.text) for OSSemPend
    fpga_spi.o(.text) refers to aeabi_memset.o(.text) for __aeabi_memset
    fpga_spi.o(.text) refers to fpga_spi.o(.constdata) for __FUNCTION__
    fpga_spi.o(.text) refers to cdv_define.o(.bss) for MOTO_SEM
    fpga_spi.o(.text) refers to fpga_spi.o(.data) for err_times1
    mainuart.o(.text) refers to _printf_percent.o(.ARM.Collect$$_printf_percent$$00000000) for _printf_percent
    mainuart.o(.text) refers to _printf_s.o(.ARM.Collect$$_printf_percent$$00000014) for _printf_s
    mainuart.o(.text) refers to _printf_str.o(.text) for _printf_str
    mainuart.o(.text) refers to _printf_d.o(.ARM.Collect$$_printf_percent$$00000009) for _printf_d
    mainuart.o(.text) refers to _printf_dec.o(.text) for _printf_int_dec
    mainuart.o(.text) refers to _printf_x.o(.ARM.Collect$$_printf_percent$$0000000C) for _printf_x
    mainuart.o(.text) refers to _printf_hex_int.o(.text) for _printf_longlong_hex
    mainuart.o(.text) refers to _printf_f.o(.ARM.Collect$$_printf_percent$$00000003) for _printf_f
    mainuart.o(.text) refers to printf1.o(x$fpl$printf1) for _printf_fp_dec
    mainuart.o(.text) refers to cdv_config.o(.text) for NewMemory
    mainuart.o(.text) refers to malloc.o(.text) for UserMemPtr
    mainuart.o(.text) refers to os_task.o(.text) for OS_TaskSuspend
    mainuart.o(.text) refers to delay.o(.text) for GetCdvTimeTick
    mainuart.o(.text) refers to flash.o(.text) for SPI_Flash_Write
    mainuart.o(.text) refers to os_sem.o(.text) for OSSemPend
    mainuart.o(.text) refers to mainuart.o(.constdata) for chCRCHTalbe
    mainuart.o(.text) refers to mainuart.o(.bss) for g_scriptRecv
    mainuart.o(.text) refers to cdv_define.o(.data) for g_cdvStat
    mainuart.o(.text) refers to cdv_define.o(.bss) for CdvRefreshTaskTCB
    mainuart.o(.text) refers to mainuart.o(.data) for ononononon
    mainuart.o(.text) refers to tcp_server.o(.text) for TCP_ServerSendPlus
    mainuart.o(.text) refers to uartx.o(.text) for USARTSend
    mainuart.o(.text) refers to rt_memclr_w.o(.text) for __aeabi_memclr4
    mainuart.o(.text) refers to noretval__2sprintf.o(.text) for __2sprintf
    mainuart.o(.text) refers to strlen.o(.text) for strlen
    mainuart.o(.text) refers to cascade.o(.text) for CascadeGetNativeNo
    mainuart.o(.text) refers to rt_memcpy_w.o(.text) for __aeabi_memcpy4
    mainuart.o(.text) refers to worker.o(.text) for IsTaskExist
    mainuart.o(.text) refers to rt_memclr.o(.text) for __aeabi_memclr
    mainuart.o(.text) refers to cdv_define.o(.text) for CmdArgInit
    mainuart.o(.text) refers to strncmp.o(.text) for strncmp
    mainuart.o(.text) refers to sysmng.o(.text) for ResetCdv
    mainuart.o(.text) refers to newscript.o(.bss) for g_line
    mainuart.o(.text) refers to worker.o(.bss) for g_threadInfo
    mainuart.o(.text) refers to worker.o(.data) for WorkerStatusName
    mainuart.o(.text) refers to atoi.o(.text) for atoi
    mainuart.o(.text) refers to strchr.o(.text) for strchr
    mainuart.o(.text) refers to udpmain.o(.text) for udpecho_find
    mainuart.o(.text) refers to newscript.o(.text) for Flash_Send
    mainuart.o(.text) refers to basic_resource.o(.text) for ResParse
    log.o(.text) refers to _printf_percent.o(.ARM.Collect$$_printf_percent$$00000000) for _printf_percent
    log.o(.text) refers to _printf_s.o(.ARM.Collect$$_printf_percent$$00000014) for _printf_s
    log.o(.text) refers to _printf_str.o(.text) for _printf_str
    log.o(.text) refers to _printf_pad.o(.text) for _printf_pre_padding
    log.o(.text) refers to _printf_x.o(.ARM.Collect$$_printf_percent$$0000000C) for _printf_x
    log.o(.text) refers to _printf_hex_int.o(.text) for _printf_longlong_hex
    log.o(.text) refers to flash.o(.text) for SPI_Flash_Write
    log.o(.text) refers to cdv_config.o(.text) for assert
    log.o(.text) refers to basic_resource.o(.text) for ResRequest
    log.o(.text) refers to malloc.o(.text) for UserMemPtr
    log.o(.text) refers to mainuart.o(.text) for AddTxNoCrc
    log.o(.text) refers to log.o(.bss) for logInf
    log.o(.text) refers to log.o(.constdata) for __FUNCTION__
    log.o(.text) refers to rt_memclr_w.o(.text) for __aeabi_memclr4
    log.o(.text) refers to strlen.o(.text) for strlen
    log.o(.text) refers to rt_memcpy_w.o(.text) for __aeabi_memcpy4
    log.o(.text) refers to noretval__2sprintf.o(.text) for __2sprintf
    log.o(.text) refers to time.o(.text) for ReadClock100ms
    log.o(.text) refers to delay.o(.text) for CalcCount
    log.o(.text) refers to aeabi_memset.o(.text) for __aeabi_memset
    log.o(.text) refers to cdv_define.o(.data) for g_cdvStat
    cdv_array.o(.text) refers to cdv_config.o(.text) for NewMemory
    cdv_array.o(.text) refers to cdv_array.o(.constdata) for __FUNCTION__
    cdv_array.o(.text) refers to os_sem.o(.text) for OSSemPend
    cdv_array.o(.text) refers to cdv_define.o(.bss) for LIST_SEM
    cdv_array.o(.text) refers to cdv_array.o(.data) for list_test_on
    newscript.o(.text) refers to cdv_array.o(.text) for ClearArrayU32
    newscript.o(.text) refers to cdv_config.o(.text) for assert
    newscript.o(.text) refers to flash.o(.text) for SPI_Flash_Read
    newscript.o(.text) refers to mainuart.o(.text) for oneCRC16
    newscript.o(.text) refers to newscript.o(.bss) for g_line
    newscript.o(.text) refers to newscript.o(.constdata) for __FUNCTION__
    newscript.o(.text) refers to malloc.o(.text) for UserMemPtr
    modbus.o(.text) refers to mainuart.o(.text) for ModbusRequest
    modbus.o(.text) refers to cdv_config.o(.text) for NewMemory
    modbus.o(.text) refers to io.o(.text) for IRead
    modbus.o(.text) refers to os_sem.o(.text) for OSSemPend
    modbus.o(.text) refers to modbus.o(.bss) for g_modbusCoil
    modbus.o(.text) refers to cdv_define.o(.bss) for COIL_SEM
    modbus.o(.text) refers to flash.o(.text) for SPI_Flash_Write
    modbus.o(.text) refers to var.o(.text) for ValToFlash
    modbus.o(.text) refers to io.o(.data) for g_o
    modbus.o(.text) refers to modbus.o(.constdata) for __FUNCTION__
    modbus.o(.text) refers to sysmng.o(.text) for ChangeToCdvStat
    worker.o(.text) refers to offline.o(.text) for Mem_Ptr
    worker.o(.text) refers to cdv_config.o(.text) for assert
    worker.o(.text) refers to newscript.o(.text) for GetWorkerAddr
    worker.o(.text) refers to cmdparse.o(.text) for CmdParse
    worker.o(.text) refers to cascade.o(.text) for TFUsartCmdParse
    worker.o(.text) refers to rt_memclr_w.o(.text) for __aeabi_memclr4
    worker.o(.text) refers to cdv_define.o(.text) for CmdArgInit
    worker.o(.text) refers to delay.o(.text) for CalcCount
    worker.o(.text) refers to os_task.o(.text) for OS_TaskSuspend
    worker.o(.text) refers to os_sem.o(.text) for OSSemPend
    worker.o(.text) refers to rt_memcpy_w.o(.text) for __aeabi_memcpy4
    worker.o(.text) refers to offline.o(.data) for OfflineScript
    worker.o(.text) refers to newscript.o(.bss) for g_line
    worker.o(.text) refers to worker.o(.constdata) for __FUNCTION__
    worker.o(.text) refers to worker.o(.data) for time_which
    worker.o(.text) refers to delay.o(.data) for cdvTimeTick
    worker.o(.text) refers to worker.o(.bss) for time
    worker.o(.text) refers to cdv_define.o(.bss) for WORKER_TASK_STK
    worker.o(.text) refers to cdv_define.o(.data) for workerName
    worker.o(.text) refers to rt_memclr.o(.text) for __aeabi_memclr
    worker.o(.text) refers to io.o(.text) for OWrite
    worker.o(.text) refers to modbus.o(.bss) for g_modbusCoil
    worker.o(.text) refers to basic_resource.o(.text) for ResRequest
    worker.o(.text) refers to var.o(.text) for ValSet
    worker.o(.text) refers to sysmng.o(.text) for ResetCdv
    worker.o(.data) refers to worker.o(.conststring) for .conststring
    cmdparse.o(.text) refers to mainuart.o(.text) for OnlineParse
    cmdparse.o(.text) refers to cascade.o(.text) for CascadeGetNativeNo
    cmdparse.o(.text) refers to cdv_config.o(.text) for assert
    cmdparse.o(.text) refers to universalscom.o(.text) for UniSerialModbusParse
    cmdparse.o(.text) refers to worker.o(.text) for ManagerControl
    cmdparse.o(.text) refers to basic_resource.o(.text) for ResRequest
    cmdparse.o(.text) refers to alarm.o(.text) for AlarmQuery
    cmdparse.o(.text) refers to log.o(.text) for Log_Cmd
    cmdparse.o(.text) refers to centralizedcontrol.o(.text) for CentralizedControl_QuerySysInfo
    cmdparse.o(.text) refers to cmdparse.o(.constdata) for __FUNCTION__
    cmdparse.o(.text) refers to modbus.o(.text) for ModbusParse
    cascade.o(.text) refers to _printf_pad.o(.text) for _printf_pre_padding
    cascade.o(.text) refers to _printf_percent.o(.ARM.Collect$$_printf_percent$$00000000) for _printf_percent
    cascade.o(.text) refers to _printf_d.o(.ARM.Collect$$_printf_percent$$00000009) for _printf_d
    cascade.o(.text) refers to _printf_dec.o(.text) for _printf_int_dec
    cascade.o(.text) refers to flash.o(.text) for SPI_Flash_Read
    cascade.o(.text) refers to cdv_config.o(.text) for NewMemory
    cascade.o(.text) refers to delay.o(.text) for delay_ms
    cascade.o(.text) refers to basic_resource.o(.text) for ResRequest
    cascade.o(.text) refers to stm32f4xx_gpio.o(.text) for GPIO_ResetBits
    cascade.o(.text) refers to spix.o(.text) for SPIx_ReadWriteByte
    cascade.o(.text) refers to os_sem.o(.text) for OSSemPend
    cascade.o(.text) refers to mainuart.o(.text) for getCRC16
    cascade.o(.text) refers to cascade.o(.data) for slaveTableLen
    cascade.o(.text) refers to cascade.o(.constdata) for __FUNCTION__
    cascade.o(.text) refers to cdv_define.o(.bss) for MOTO_SEM
    cascade.o(.text) refers to spi3.o(.text) for SPI3_Send
    cascade.o(.text) refers to strstr.o(.text) for strstr
    cascade.o(.text) refers to var.o(.text) for ValSet
    cascade.o(.text) refers to strncmp.o(.text) for strncmp
    cascade.o(.text) refers to noretval__2sprintf.o(.text) for __2sprintf
    cascade.o(.text) refers to cascade.o(.bss) for g_portCmdCache
    cascade.o(.text) refers to strchr.o(.text) for strchr
    cascade.o(.text) refers to atoi.o(.text) for atoi
    cascade.o(.text) refers to modbus.o(.text) for ReadRegisterCmd
    cascade.o(.text) refers to universalscom.o(.text) for UniSerialSendCRC
    cascade.o(.text) refers to rt_memclr_w.o(.text) for __aeabi_memclr4
    cascade.o(.text) refers to modbus.o(.bss) for g_modbusReg
    cascade.o(.text) refers to newscript.o(.bss) for g_line
    cascade.o(.text) refers to led.o(.text) for OUT_DisPlay
    cascade.o(.text) refers to io.o(.bss) for g_dipSW
    cascade.o(.text) refers to uartx.o(.text) for USARTTR
    cascade.o(.text) refers to varexp.o(.text) for ArithmeticEx
    tcp_server.o(.text) refers to _printf_percent.o(.ARM.Collect$$_printf_percent$$00000000) for _printf_percent
    tcp_server.o(.text) refers to _printf_d.o(.ARM.Collect$$_printf_percent$$00000009) for _printf_d
    tcp_server.o(.text) refers to _printf_dec.o(.text) for _printf_int_dec
    tcp_server.o(.text) refers to _printf_pad.o(.text) for _printf_pre_padding
    tcp_server.o(.text) refers to _printf_x.o(.ARM.Collect$$_printf_percent$$0000000C) for _printf_x
    tcp_server.o(.text) refers to _printf_hex_int.o(.text) for _printf_longlong_hex
    tcp_server.o(.text) refers to rt_memclr_w.o(.text) for __aeabi_memclr4
    tcp_server.o(.text) refers to noretval__2sprintf.o(.text) for __2sprintf
    tcp_server.o(.text) refers to strlen.o(.text) for strlen
    tcp_server.o(.text) refers to mainuart.o(.text) for AddTxNoCrcPlus
    tcp_server.o(.text) refers to api_lib.o(.text) for netconn_getaddr
    tcp_server.o(.text) refers to malloc.o(.text) for UserMemPtr
    tcp_server.o(.text) refers to netbuf.o(.text) for netbuf_data
    tcp_server.o(.text) refers to rt_memclr.o(.text) for __aeabi_memclr
    tcp_server.o(.text) refers to cdv_config.o(.text) for MemCpy
    tcp_server.o(.text) refers to cdv_array.o(.text) for LIST_Remove
    tcp_server.o(.text) refers to cpu_a.o(.text) for CPU_SR_Save
    tcp_server.o(.text) refers to os_task.o(.text) for OSTaskCreate
    tcp_server.o(.text) refers to flash.o(.text) for SPI_Flash_Read
    tcp_server.o(.text) refers to lwip_comm.o(.bss) for lwipdev
    tcp_server.o(.text) refers to tcp_server.o(.data) for g_connected
    tcp_server.o(.text) refers to udpmain.o(.data) for closeTcp
    tcp_server.o(.text) refers to cdv_define.o(.data) for g_cdvStat
    tcp_server.o(.text) refers to mainuart.o(.bss) for g_olCache
    tcp_server.o(.text) refers to lan8720.o(.data) for isLinkUp
    tcp_server.o(.text) refers to tcp_server.o(.bss) for TCPCONNECT_TASK_STK
    tcp_server.o(.text) refers to os_sem.o(.text) for OSSemPend
    tcp_server.o(.text) refers to ip_addr.o(.constdata) for ip_addr_any
    tcp_server.o(.text) refers to cdv_define.o(.bss) for TCP_TX_SEM
    tcp_server.o(.text) refers to tcp_server.o(.constdata) for __FUNCTION__
    udpmain.o(.text) refers to _printf_percent.o(.ARM.Collect$$_printf_percent$$00000000) for _printf_percent
    udpmain.o(.text) refers to _printf_d.o(.ARM.Collect$$_printf_percent$$00000009) for _printf_d
    udpmain.o(.text) refers to _printf_dec.o(.text) for _printf_int_dec
    udpmain.o(.text) refers to api_lib.o(.text) for netconn_new_with_proto_and_callback
    udpmain.o(.text) refers to netbuf.o(.text) for netbuf_data
    udpmain.o(.text) refers to strcmpv7m.o(.text) for strcmp
    udpmain.o(.text) refers to flash.o(.text) for SPI_Flash_Read
    udpmain.o(.text) refers to cdv_config.o(.text) for NewMemory
    udpmain.o(.text) refers to cascade.o(.text) for CascadeGetNativeNo
    udpmain.o(.text) refers to noretval__2sprintf.o(.text) for __2sprintf
    udpmain.o(.text) refers to strlen.o(.text) for strlen
    udpmain.o(.text) refers to cpu_a.o(.text) for CPU_SR_Save
    udpmain.o(.text) refers to os_task.o(.text) for OSTaskCreate
    udpmain.o(.text) refers to mainuart.o(.text) for AddTxNoCrcPlus
    udpmain.o(.text) refers to ip_addr.o(.constdata) for ip_addr_any
    udpmain.o(.text) refers to lwip_comm.o(.bss) for lwipdev
    udpmain.o(.text) refers to udpmain.o(.data) for closeTcp
    udpmain.o(.text) refers to udpmain.o(.bss) for UDPSERVER_TASK_STK
    centralizedcontrol.o(.text) refers to newscript.o(.text) for GetYYCVersion
    centralizedcontrol.o(.text) refers to cdv_config.o(.text) for DelMemory
    centralizedcontrol.o(.text) refers to mainuart.o(.text) for MODBUS_CRC16
    centralizedcontrol.o(.text) refers to basic_resource.o(.text) for ResRequest
    centralizedcontrol.o(.text) refers to var.o(.text) for ValSet
    centralizedcontrol.o(.text) refers to delay.o(.text) for delay_ms
    centralizedcontrol.o(.text) refers to sysmng.o(.text) for ResetCdv
    centralizedcontrol.o(.text) refers to flash.o(.text) for SPI_Flash_Write
    centralizedcontrol.o(.text) refers to tcp_server.o(.text) for GetIpFromArg
    centralizedcontrol.o(.text) refers to cascade.o(.data) for version
    centralizedcontrol.o(.text) refers to lwip_comm.o(.bss) for lwipdev
    centralizedcontrol.o(.text) refers to modbus.o(.bss) for g_modbusReg
    sysmng.o(.text) refers to _printf_percent.o(.ARM.Collect$$_printf_percent$$00000000) for _printf_percent
    sysmng.o(.text) refers to _printf_d.o(.ARM.Collect$$_printf_percent$$00000009) for _printf_d
    sysmng.o(.text) refers to _printf_dec.o(.text) for _printf_int_dec
    sysmng.o(.text) refers to rt_memclr_w.o(.text) for __aeabi_memclr4
    sysmng.o(.text) refers to noretval__2sprintf.o(.text) for __2sprintf
    sysmng.o(.text) refers to log.o(.text) for Log_Write
    sysmng.o(.text) refers to os_task.o(.text) for OSTaskResume
    sysmng.o(.text) refers to basic_resource.o(.text) for ResRequest
    sysmng.o(.text) refers to delay.o(.text) for delay_ms
    sysmng.o(.text) refers to cdv_define.o(.data) for g_cdvStat
    sysmng.o(.text) refers to cdv_define.o(.bss) for WorkerManageTaskTCB
    logic.o(.text) refers to varexp.o(.text) for ArithmeticEx
    logic.o(.text) refers to basic_resource.o(.text) for ResRequest
    logic.o(.text) refers to worker.o(.text) for ToWorkerCmd
    logic.o(.text) refers to cdv_config.o(.text) for assert
    logic.o(.text) refers to offline.o(.text) for Mem_Read_Ptr
    logic.o(.text) refers to var.o(.text) for VarGet
    logic.o(.text) refers to offline.o(.data) for OfflineScript
    logic.o(.text) refers to logic.o(.constdata) for __FUNCTION__
    io.o(.text) refers to stm32f4xx_rcc.o(.text) for RCC_AHB1PeriphClockCmd
    io.o(.text) refers to stm32f4xx_gpio.o(.text) for GPIO_Init
    io.o(.text) refers to flash.o(.text) for SPI_Flash_Write
    io.o(.text) refers to fpga_spi.o(.text) for FpgaIRead
    io.o(.text) refers to io.o(.bss) for g_cdvO
    io.o(.text) refers to fpga_spi.o(.data) for CDV_EXO_NUM
    io.o(.text) refers to os_sem.o(.text) for OSSemPend
    io.o(.text) refers to rt_memclr_w.o(.text) for __aeabi_memclr4
    io.o(.text) refers to cdv_config.o(.text) for DelayUS
    io.o(.text) refers to cascade.o(.text) for CascadeModbus_MapFindInExp
    io.o(.text) refers to cdv_define.o(.bss) for COIL_SEM
    io.o(.text) refers to io.o(.data) for g_o
    io.o(.text) refers to time.o(.text) for TimeDelay
    io.o(.text) refers to varexp.o(.text) for ArithmeticEx
    io.o(.text) refers to basic_resource.o(.text) for ResRequest
    io.o(.text) refers to cdv_define.o(.data) for g_cdvStat
    io.o(.text) refers to alarm.o(.text) for Alarm_flag
    io.o(.text) refers to alarm.o(.data) for Alarmflag
    io.o(.data) refers to modbus.o(.bss) for g_modbusInCoil
    var.o(.text) refers to cdv_config.o(.text) for assert
    var.o(.text) refers to flash.o(.text) for SPI_Flash_Write
    var.o(.text) refers to var.o(.constdata) for __FUNCTION__
    var.o(.text) refers to var.o(.data) for g_var
    var.o(.text) refers to varexp.o(.text) for ArithmeticEx
    var.o(.text) refers to basic_resource.o(.text) for ResRequest
    var.o(.data) refers to modbus.o(.bss) for g_modbusReg
    msg.o(.text) refers to os_sem.o(.text) for OSSemPend
    msg.o(.text) refers to basic_resource.o(.text) for ResRequest
    msg.o(.text) refers to msg.o(.data) for g_msg
    msg.o(.text) refers to cdv_define.o(.bss) for MSG_SEM
    time.o(.text) refers to os_time.o(.text) for OSTimeDlyHMSM
    time.o(.text) refers to var.o(.text) for VarGet
    time.o(.text) refers to varexp.o(.text) for ArithmeticEx
    time.o(.text) refers to delay.o(.text) for StartCdvTime
    time.o(.text) refers to basic_resource.o(.text) for ResRequest
    time.o(.text) refers to stm32f4xx_rcc.o(.text) for RCC_APB1PeriphClockCmd
    time.o(.text) refers to misc.o(.text) for NVIC_Init
    time.o(.text) refers to stm32f4xx_tim.o(.text) for TIM_TimeBaseInit
    time.o(.text) refers to os_core.o(.text) for OSIntEnter
    time.o(.text) refers to time.o(.data) for p_ReadClock
    time.o(.text) refers to os_cfg_app.o(.constdata) for OSCfg_TickRate_Hz
    time.o(.data) refers to time.o(.text) for ReadClock1ms
    motoparmtrans.o(.text) refers to drleqf.o(x$fpl$drleqf) for __aeabi_cdrcmple
    motoparmtrans.o(.text) refers to daddsub_clz.o(x$fpl$dadd) for __aeabi_dadd
    motoparmtrans.o(.text) refers to daddsub_clz.o(x$fpl$dsub) for __aeabi_dsub
    motoparmtrans.o(.text) refers to dfix.o(x$fpl$dfix) for __aeabi_d2iz
    motoparmtrans.o(.text) refers to dflt_clz.o(x$fpl$dflt) for __aeabi_i2d
    motoparmtrans.o(.text) refers to dmul.o(x$fpl$dmul) for __aeabi_dmul
    motoparmtrans.o(.text) refers to deqf.o(x$fpl$deqf) for __aeabi_cdcmpeq
    motoparmtrans.o(.text) refers to ddiv.o(x$fpl$ddiv) for __aeabi_ddiv
    motoparmtrans.o(.text) refers to sqrt.o(i.sqrt) for sqrt
    motoparmtrans.o(.text) refers to motoparmtrans.o(.constdata) for .constdata
    motoparmtrans.o(.text) refers to dleqf.o(x$fpl$dleqf) for __aeabi_cdcmple
    motoparmtrans.o(.text) refers to sin.o(i.sin) for sin
    adc.o(.text) refers to stm32f4xx_rcc.o(.text) for RCC_AHB1PeriphClockCmd
    adc.o(.text) refers to stm32f4xx_gpio.o(.text) for GPIO_Init
    adc.o(.text) refers to stm32f4xx_adc.o(.text) for ADC_CommonInit
    adc.o(.text) refers to stm32f4xx_dma.o(.text) for DMA_Init
    adc.o(.text) refers to adc.o(.bss) for adc_par
    adc.o(.text) refers to delay.o(.text) for delay_ms
    adc.o(.text) refers to rt_memcpy_v6.o(.text) for __aeabi_memcpy
    adc.o(.text) refers to dflt_clz.o(x$fpl$dfltu) for __aeabi_ui2d
    adc.o(.text) refers to daddsub_clz.o(x$fpl$dadd) for __aeabi_dadd
    adc.o(.text) refers to ddiv.o(x$fpl$ddiv) for __aeabi_ddiv
    adc.o(.text) refers to dfixu.o(x$fpl$dfixu) for __aeabi_d2uiz
    adc.o(.text) refers to fflt_clz.o(x$fpl$ffltu) for __aeabi_ui2f
    adc.o(.text) refers to faddsub_clz.o(x$fpl$fsub) for __aeabi_fsub
    adc.o(.text) refers to fmul.o(x$fpl$fmul) for __aeabi_fmul
    adc.o(.text) refers to f2d.o(x$fpl$f2d) for __aeabi_f2d
    adc.o(.text) refers to dflt_clz.o(x$fpl$dflt) for __aeabi_i2d
    adc.o(.text) refers to sqrt.o(i.sqrt) for sqrt
    adc.o(.text) refers to d2f.o(x$fpl$d2f) for __aeabi_d2f
    adc.o(.text) refers to ffix.o(x$fpl$ffix) for __aeabi_f2iz
    adc.o(.text) refers to rt_memclr.o(.text) for __aeabi_memclr
    adc.o(.text) refers to rt_memclr_w.o(.text) for __aeabi_memclr4
    adc.o(.text) refers to ffixu.o(x$fpl$ffixu) for __aeabi_f2uiz
    adc.o(.text) refers to cascade.o(.text) for CascadeModbus_MapFindInExp
    adc.o(.text) refers to dmul.o(x$fpl$dmul) for __aeabi_dmul
    adc.o(.text) refers to dfix.o(x$fpl$dfix) for __aeabi_d2iz
    adc.o(.text) refers to var.o(.text) for ValSet
    adc.o(.text) refers to basic_resource.o(.text) for ResRequest
    adc.o(.text) refers to adc.o(.data) for g_adcval
    adc.o(.text) refers to modbus.o(.bss) for g_modbusInReg
    adc.o(.text) refers to daddsub_clz.o(x$fpl$drsb) for __aeabi_drsub
    adc.o(.text) refers to fdiv.o(x$fpl$fdiv) for __aeabi_fdiv
    adc.o(.data) refers to modbus.o(.bss) for g_modbusInReg
    dac.o(.text) refers to stm32f4xx_rcc.o(.text) for RCC_AHB1PeriphClockCmd
    dac.o(.text) refers to stm32f4xx_gpio.o(.text) for GPIO_Init
    dac.o(.text) refers to stm32f4xx_dac.o(.text) for DAC_Init
    dac.o(.text) refers to dflt_clz.o(x$fpl$dfltu) for __aeabi_ui2d
    dac.o(.text) refers to drleqf.o(x$fpl$drleqf) for __aeabi_cdrcmple
    dac.o(.text) refers to dfixu.o(x$fpl$dfixu) for __aeabi_d2uiz
    dac.o(.text) refers to f2d.o(x$fpl$f2d) for __aeabi_f2d
    dac.o(.text) refers to dfix.o(x$fpl$dfix) for __aeabi_d2iz
    dac.o(.text) refers to dac7512.o(.text) for WriteToDA2C_7512
    dac.o(.text) refers to fflt_clz.o(x$fpl$ffltu) for __aeabi_ui2f
    dac.o(.text) refers to fdiv.o(x$fpl$fdiv) for __aeabi_fdiv
    dac.o(.text) refers to faddsub_clz.o(x$fpl$fadd) for __aeabi_fadd
    dac.o(.text) refers to ffixu.o(x$fpl$ffixu) for __aeabi_f2uiz
    dac.o(.text) refers to delay.o(.text) for delay_ms
    dac.o(.text) refers to cascade.o(.text) for CascadeModbus_MapFindInExp
    dac.o(.text) refers to varexp.o(.text) for ArithmeticEx
    dac.o(.text) refers to var.o(.text) for VarGet
    dac.o(.text) refers to basic_resource.o(.text) for ResRequest
    dac.o(.text) refers to dac.o(.bss) for dac_par
    dac.o(.text) refers to dac.o(.data) for g_dacval
    dac.o(.text) refers to modbus.o(.bss) for g_modbusReg
    dac.o(.text) refers to fflt_clz.o(x$fpl$fflt) for __aeabi_i2f
    dac.o(.text) refers to fmul.o(x$fpl$fmul) for __aeabi_fmul
    dac.o(.text) refers to faddsub_clz.o(x$fpl$frsb) for __aeabi_frsub
    dac.o(.data) refers to modbus.o(.bss) for g_modbusInReg
    dac7512.o(.text) refers to stm32f4xx_rcc.o(.text) for RCC_AHB1PeriphClockCmd
    dac7512.o(.text) refers to stm32f4xx_gpio.o(.text) for GPIO_Init
    ph.o(.text) refers to mainuart.o(.text) for getCRC16
    ph.o(.text) refers to uartx.o(.text) for USARTTR
    ph.o(.text) refers to ph.o(.constdata) for .constdata
    csbctrl.o(.text) refers to mainuart.o(.text) for getCRC16
    csbctrl.o(.text) refers to uartx.o(.text) for USARTTR
    csbctrl.o(.text) refers to basic_resource.o(.text) for ResParaRequest
    csbctrl.o(.text) refers to var.o(.text) for VarGet
    universalscom.o(.text) refers to malloc.o(.text) for UserMemPtr
    universalscom.o(.text) refers to rt_memclr.o(.text) for __aeabi_memclr
    universalscom.o(.text) refers to uartx.o(.text) for CorrectComParam
    universalscom.o(.text) refers to basic_resource.o(.text) for ResRequest
    universalscom.o(.text) refers to flash.o(.text) for SPI_Flash_Read
    universalscom.o(.text) refers to cdv_config.o(.text) for NewMemory
    universalscom.o(.text) refers to mainuart.o(.text) for getCRC16
    universalscom.o(.text) refers to varexp.o(.text) for ArithmeticEx
    universalscom.o(.text) refers to modbus.o(.text) for WriteMultiRegisterCmd
    universalscom.o(.text) refers to universalscom.o(.constdata) for __FUNCTION__
    universalscom.o(.text) refers to var.o(.text) for VarGet
    alarm.o(.text) refers to worker.o(.text) for WorkerControl
    alarm.o(.text) refers to basic_resource.o(.text) for ResRequest
    alarm.o(.text) refers to mainuart.o(.text) for getCRC16
    alarm.o(.text) refers to delay.o(.text) for delay_ms
    alarm.o(.text) refers to flash.o(.text) for SPI_Flash_Read
    alarm.o(.text) refers to alarm.o(.bss) for strAlarmInfo
    alarm.o(.text) refers to alarm.o(.data) for Alarmflag
    alarm.o(.text) refers to alarm.o(.constdata) for .constdata
    alarm.o(.text) refers to newscript.o(.bss) for g_line
    led.o(.text) refers to stm32f4xx_rcc.o(.text) for RCC_AHB1PeriphClockCmd
    led.o(.text) refers to stm32f4xx_gpio.o(.text) for GPIO_Init
    led.o(.text) refers to delay.o(.text) for delay_ms
    varexp.o(.text) refers to cdv_config.o(.text) for NewMemory
    varexp.o(.text) refers to faddsub_clz.o(x$fpl$fadd) for __aeabi_fadd
    varexp.o(.text) refers to faddsub_clz.o(x$fpl$fsub) for __aeabi_fsub
    varexp.o(.text) refers to fmul.o(x$fpl$fmul) for __aeabi_fmul
    varexp.o(.text) refers to ffix.o(x$fpl$ffix) for __aeabi_f2iz
    varexp.o(.text) refers to fflt_clz.o(x$fpl$fflt) for __aeabi_i2f
    varexp.o(.text) refers to feqf.o(x$fpl$feqf) for __aeabi_cfcmpeq
    varexp.o(.text) refers to fdiv.o(x$fpl$fdiv) for __aeabi_fdiv
    varexp.o(.text) refers to fleqf.o(x$fpl$fleqf) for __aeabi_cfcmple
    varexp.o(.text) refers to frleqf.o(x$fpl$frleqf) for __aeabi_cfrcmple
    varexp.o(.text) refers to rt_memclr_w.o(.text) for __aeabi_memclr4
    varexp.o(.text) refers to atof.o(i.atof) for atof
    varexp.o(.text) refers to d2f.o(x$fpl$d2f) for __aeabi_d2f
    varexp.o(.text) refers to ffixu.o(x$fpl$ffixu) for __aeabi_f2uiz
    varexp.o(.text) refers to var.o(.text) for VarGet
    varexp.o(.text) refers to io.o(.text) for IBitRead
    varexp.o(.text) refers to fflt_clz.o(x$fpl$ffltu) for __aeabi_ui2f
    varexp.o(.text) refers to adc.o(.text) for AdcRead
    varexp.o(.text) refers to dac.o(.text) for DacRead
    varexp.o(.text) refers to time.o(.text) for ReadClock
    varexp.o(.text) refers to varexp.o(.constdata) for __FUNCTION__
    varexp.o(.text) refers to worker.o(.text) for WorkerRead
    memmng.o(.text) refers to cdv_config.o(.text) for assert
    memmng.o(.text) refers to sram.o(.text) for FSMC_SRAM_Init
    memmng.o(.text) refers to memmng.o(.constdata) for __FUNCTION__
    memmng.o(.text) refers to memmng.o(.data) for map_start_cache
    memmng.o(.text) refers to memmng.o(.ARM.__AT_0x680C0000) for mem_mapbase
    memmng.o(.text) refers to memmng.o(.ARM.__AT_0x68000000) for mem_base
    uart1.o(.text) refers to stm32f4xx_usart.o(.text) for USART_ITConfig
    uart1.o(.text) refers to os_core.o(.text) for OSIntEnter
    uart1.o(.text) refers to stm32f4xx_rcc.o(.text) for RCC_AHB1PeriphClockCmd
    uart1.o(.text) refers to stm32f4xx_gpio.o(.text) for GPIO_PinAFConfig
    uart1.o(.text) refers to misc.o(.text) for NVIC_Init
    uart1.o(.text) refers to dmax.o(.text) for DMA_Config
    uart1.o(.text) refers to stm32f4xx_dma.o(.text) for DMA_MemoryTargetConfig
    uart1.o(.text) refers to delay.o(.text) for GetCdvTimeTick
    uart1.o(.text) refers to os_sem.o(.text) for OSSemPend
    uart1.o(.text) refers to uart1.o(.data) for g_pUsart1RxBuf
    uart1.o(.text) refers to cdv_define.o(.bss) for COM_SEM
    uart2.o(.text) refers to stm32f4xx_usart.o(.text) for USART_ITConfig
    uart2.o(.text) refers to os_core.o(.text) for OSIntEnter
    uart2.o(.text) refers to stm32f4xx_rcc.o(.text) for RCC_AHB1PeriphClockCmd
    uart2.o(.text) refers to stm32f4xx_gpio.o(.text) for GPIO_PinAFConfig
    uart2.o(.text) refers to misc.o(.text) for NVIC_Init
    uart2.o(.text) refers to dmax.o(.text) for DMA_Config
    uart2.o(.text) refers to stm32f4xx_dma.o(.text) for DMA_MemoryTargetConfig
    uart2.o(.text) refers to delay.o(.text) for GetCdvTimeTick
    uart2.o(.text) refers to os_sem.o(.text) for OSSemPend
    uart2.o(.text) refers to uart2.o(.data) for g_pUart2RxBuf
    uart2.o(.text) refers to cdv_define.o(.bss) for COM_SEM
    uart3.o(.text) refers to stm32f4xx_usart.o(.text) for USART_ITConfig
    uart3.o(.text) refers to os_core.o(.text) for OSIntEnter
    uart3.o(.text) refers to time.o(.text) for ReadClock1ms
    uart3.o(.text) refers to stm32f4xx_rcc.o(.text) for RCC_AHB1PeriphClockCmd
    uart3.o(.text) refers to stm32f4xx_gpio.o(.text) for GPIO_PinAFConfig
    uart3.o(.text) refers to misc.o(.text) for NVIC_Init
    uart3.o(.text) refers to dmax.o(.text) for DMA_Config
    uart3.o(.text) refers to stm32f4xx_dma.o(.text) for DMA_MemoryTargetConfig
    uart3.o(.text) refers to delay.o(.text) for delay_ms
    uart3.o(.text) refers to os_sem.o(.text) for OSSemPend
    uart3.o(.text) refers to uart3.o(.data) for g_pUsart3RxBuf
    uart3.o(.text) refers to uart3.o(.bss) for USART3_RX_BUF
    uart3.o(.text) refers to cdv_define.o(.data) for tm2Re
    uart3.o(.text) refers to cdv_define.o(.bss) for COM_SEM
    uart3.o(.data) refers to uart3.o(.bss) for USART3_RX_BUF
    uart4.o(.text) refers to stm32f4xx_usart.o(.text) for USART_ITConfig
    uart4.o(.text) refers to os_core.o(.text) for OSIntEnter
    uart4.o(.text) refers to uartx.o(.text) for USARTx_IRQHandler
    uart4.o(.text) refers to stm32f4xx_rcc.o(.text) for RCC_AHB1PeriphClockCmd
    uart4.o(.text) refers to stm32f4xx_gpio.o(.text) for GPIO_PinAFConfig
    uart4.o(.text) refers to misc.o(.text) for NVIC_Init
    uart4.o(.text) refers to dmax.o(.text) for DMA_Config
    uart4.o(.text) refers to stm32f4xx_dma.o(.text) for DMA_MemoryTargetConfig
    uart4.o(.text) refers to delay.o(.text) for GetCdvTimeTick
    uart4.o(.text) refers to os_sem.o(.text) for OSSemPend
    uart4.o(.text) refers to uart4.o(.data) for g_pUart4RxBuf
    uart4.o(.text) refers to uart4.o(.bss) for RS485_RX_BUF
    uart4.o(.text) refers to cdv_define.o(.bss) for COM_SEM
    uart5.o(.text) refers to stm32f4xx_usart.o(.text) for USART_ITConfig
    uart5.o(.text) refers to os_core.o(.text) for OSIntEnter
    uart5.o(.text) refers to stm32f4xx_rcc.o(.text) for RCC_AHB1PeriphClockCmd
    uart5.o(.text) refers to stm32f4xx_gpio.o(.text) for GPIO_PinAFConfig
    uart5.o(.text) refers to misc.o(.text) for NVIC_Init
    uart5.o(.text) refers to dmax.o(.text) for DMA_Config
    uart5.o(.text) refers to stm32f4xx_dma.o(.text) for DMA_MemoryTargetConfig
    uart5.o(.text) refers to delay.o(.text) for GetCdvTimeTick
    uart5.o(.text) refers to os_sem.o(.text) for OSSemPend
    uart5.o(.text) refers to uart5.o(.data) for g_pUart5RxBuf
    uart5.o(.text) refers to cdv_define.o(.bss) for COM_SEM
    uart5.o(.data) refers to uart5.o(.bss) for UART5_RX_BUF
    uart6.o(.text) refers to stm32f4xx_dma.o(.text) for DMA_MemoryTargetConfig
    uart6.o(.text) refers to dmax.o(.text) for DMA_Enable
    uart6.o(.text) refers to stm32f4xx_usart.o(.text) for USART_ITConfig
    uart6.o(.text) refers to os_core.o(.text) for OSIntEnter
    uart6.o(.text) refers to delay.o(.text) for GetCdvTimeTick
    uart6.o(.text) refers to stm32f4xx_rcc.o(.text) for RCC_AHB1PeriphClockCmd
    uart6.o(.text) refers to stm32f4xx_gpio.o(.text) for GPIO_PinAFConfig
    uart6.o(.text) refers to misc.o(.text) for NVIC_Init
    uart6.o(.text) refers to os_sem.o(.text) for OSSemPend
    uart6.o(.text) refers to uart6.o(.data) for g_pUart6RxBuf
    uart6.o(.text) refers to cdv_define.o(.bss) for COM_SEM
    spix.o(.text) refers to spi2.o(.text) for SPI2_Configuration
    spix.o(.text) refers to spi3.o(.text) for SPI3_Configuration
    spix.o(.text) refers to cdv_config.o(.text) for assert
    spix.o(.text) refers to stm32f4xx_spi.o(.text) for SPI_Cmd
    spix.o(.text) refers to spix.o(.constdata) for __FUNCTION__
    exti.o(.text) refers to stm32f4xx_rcc.o(.text) for RCC_APB2PeriphClockCmd
    exti.o(.text) refers to stm32f4xx_syscfg.o(.text) for SYSCFG_EXTILineConfig
    exti.o(.text) refers to stm32f4xx_exti.o(.text) for EXTI_Init
    exti.o(.text) refers to misc.o(.text) for NVIC_Init
    exti.o(.text) refers to os_core.o(.text) for OSIntEnter
    exti.o(.text) refers to stm32f4xx_gpio.o(.text) for GPIO_ReadInputDataBit
    exti.o(.text) refers to spi3.o(.text) for ClearRxBuf
    exti.o(.text) refers to stm32f4xx_spi.o(.text) for SPI_Cmd
    spi2.o(.text) refers to stm32f4xx_rcc.o(.text) for RCC_AHB1PeriphClockCmd
    spi2.o(.text) refers to stm32f4xx_gpio.o(.text) for GPIO_PinAFConfig
    spi2.o(.text) refers to stm32f4xx_spi.o(.text) for SPI_I2S_DeInit
    spi2.o(.text) refers to spix.o(.text) for SPIx_ReadWriteByte
    spi3.o(.text) refers to cascade.o(.text) for CascadeSlaveParse2
    spi3.o(.text) refers to stm32f4xx_rcc.o(.text) for RCC_AHB1PeriphClockCmd
    spi3.o(.text) refers to stm32f4xx_gpio.o(.text) for GPIO_PinAFConfig
    spi3.o(.text) refers to stm32f4xx_spi.o(.text) for SPI_I2S_DeInit
    spi3.o(.text) refers to misc.o(.text) for NVIC_PriorityGroupConfig
    spi3.o(.text) refers to stm32f4xx_dma.o(.text) for DMA_MemoryTargetConfig
    spi3.o(.text) refers to stm32f4xx_usart.o(.text) for USART_ClearFlag
    spi3.o(.text) refers to dmax.o(.text) for DMA_Enable
    spi3.o(.text) refers to cdv_config.o(.text) for assert
    spi3.o(.text) refers to os_core.o(.text) for OSIntEnter
    spi3.o(.text) refers to spi3.o(.data) for Rx_Idx
    spi3.o(.text) refers to spi3.o(.bss) for RxBuffer
    spi3.o(.text) refers to spi3.o(.constdata) for __FUNCTION__
    uartx.o(.text) refers to cdv_config.o(.text) for assert
    uartx.o(.text) refers to flash.o(.text) for Org_Flash_Read
    uartx.o(.text) refers to uart4.o(.text) for UART4_Configuration
    uartx.o(.text) refers to delay.o(.text) for GetCdvTimeTick
    uartx.o(.text) refers to stm32f4xx_usart.o(.text) for USART_GetFlagStatus
    uartx.o(.text) refers to uartx.o(.constdata) for __FUNCTION__
    uartx.o(.text) refers to uartx.o(.data) for p_UartSet
    uartx.o(.text) refers to cdv_define.o(.data) for tm1Re
    uartx.o(.text) refers to mainuart.o(.bss) for g_olCache
    uartx.o(.data) refers to uart1.o(.text) for USART1_Configuration
    uartx.o(.data) refers to uart2.o(.text) for USART2_Configuration
    uartx.o(.data) refers to uart3.o(.text) for USART3_Configuration
    uartx.o(.data) refers to uart4.o(.text) for UART4_Configuration
    uartx.o(.data) refers to uart5.o(.text) for UART5_Configuration
    uartx.o(.data) refers to uart6.o(.text) for USART6_Configuration
    dmax.o(.text) refers to stm32f4xx_rcc.o(.text) for RCC_AHB1PeriphClockCmd
    dmax.o(.text) refers to stm32f4xx_dma.o(.text) for DMA_DeInit
    lan8720.o(.text) refers to stm32f4xx_rcc.o(.text) for RCC_AHB1PeriphClockCmd
    lan8720.o(.text) refers to stm32f4x7_eth.o(.text) for ETH_DeInit
    lan8720.o(.text) refers to misc.o(.text) for NVIC_Init
    lan8720.o(.text) refers to stm32f4xx_syscfg.o(.text) for SYSCFG_ETH_MediaInterfaceConfig
    lan8720.o(.text) refers to stm32f4xx_gpio.o(.text) for GPIO_Init
    lan8720.o(.text) refers to delay.o(.text) for delay_ms
    lan8720.o(.text) refers to os_core.o(.text) for OSIntEnter
    lan8720.o(.text) refers to lwip_comm.o(.text) for lwip_pkt_handle
    lan8720.o(.text) refers to cdv_config.o(.text) for DelMemory
    lan8720.o(.text) refers to lan8720.o(.data) for isethactive
    lan8720.o(.text) refers to stm32f4x7_eth.o(.data) for DMARxDescToGet
    lan8720.o(.text) refers to sysmng.o(.text) for ResetCdv
    lan8720.o(.text) refers to netif.o(.text) for netif_set_link_up
    lan8720.o(.text) refers to lan8720.o(.constdata) for __FUNCTION__
    lan8720.o(.text) refers to lan8720.o(.bss) for ETH_InitStructure
    lan8720.o(.text) refers to lwip_comm.o(.bss) for lwip_netif
    sram.o(.text) refers to stm32f4xx_rcc.o(.text) for RCC_AHB1PeriphClockCmd
    sram.o(.text) refers to stm32f4xx_gpio.o(.text) for GPIO_Init
    sram.o(.text) refers to stm32f4xx_fsmc.o(.text) for FSMC_NORSRAMInit
    stm32f4xx_it.o(.text) refers to cdv_define.o(.data) for g_cdvStat
    system_stm32f4xx.o(.text) refers to system_stm32f4xx.o(.data) for SystemCoreClock
    startup_stm32f40_41xxx.o(STACK) refers (Special) to heapauxi.o(.text) for __use_two_region_memory
    startup_stm32f40_41xxx.o(HEAP) refers (Special) to heapauxi.o(.text) for __use_two_region_memory
    startup_stm32f40_41xxx.o(RESET) refers (Special) to heapauxi.o(.text) for __use_two_region_memory
    startup_stm32f40_41xxx.o(RESET) refers to startup_stm32f40_41xxx.o(STACK) for __initial_sp
    startup_stm32f40_41xxx.o(RESET) refers to startup_stm32f40_41xxx.o(.text) for Reset_Handler
    startup_stm32f40_41xxx.o(RESET) refers to stm32f4xx_it.o(.text) for NMI_Handler
    startup_stm32f40_41xxx.o(RESET) refers to os_cpu_a.o(CODE) for PendSV_Handler
    startup_stm32f40_41xxx.o(RESET) refers to delay.o(.text) for SysTick_Handler
    startup_stm32f40_41xxx.o(RESET) refers to time.o(.text) for TIM3_IRQHandler
    startup_stm32f40_41xxx.o(RESET) refers to uart1.o(.text) for USART1_IRQHandler
    startup_stm32f40_41xxx.o(RESET) refers to uart2.o(.text) for USART2_IRQHandler
    startup_stm32f40_41xxx.o(RESET) refers to uart3.o(.text) for USART3_IRQHandler
    startup_stm32f40_41xxx.o(RESET) refers to exti.o(.text) for EXTI15_10_IRQHandler
    startup_stm32f40_41xxx.o(RESET) refers to spi3.o(.text) for SPI3_IRQHandler
    startup_stm32f40_41xxx.o(RESET) refers to uart4.o(.text) for UART4_IRQHandler
    startup_stm32f40_41xxx.o(RESET) refers to uart5.o(.text) for UART5_IRQHandler
    startup_stm32f40_41xxx.o(RESET) refers to lan8720.o(.text) for ETH_IRQHandler
    startup_stm32f40_41xxx.o(RESET) refers to uart6.o(.text) for DMA2_Stream6_IRQHandler
    startup_stm32f40_41xxx.o(.text) refers (Special) to heapauxi.o(.text) for __use_two_region_memory
    startup_stm32f40_41xxx.o(.text) refers to system_stm32f4xx.o(.text) for SystemInit
    startup_stm32f40_41xxx.o(.text) refers to __main.o(!!!main) for __main
    startup_stm32f40_41xxx.o(.text) refers to startup_stm32f40_41xxx.o(HEAP) for Heap_Mem
    startup_stm32f40_41xxx.o(.text) refers to startup_stm32f40_41xxx.o(STACK) for Stack_Mem
    stm32f4xx_rcc.o(.text) refers to stm32f4xx_rcc.o(.data) for APBAHBPrescTable
    stm32f4xx_gpio.o(.text) refers to stm32f4xx_rcc.o(.text) for RCC_AHB1PeriphResetCmd
    stm32f4xx_usart.o(.text) refers to stm32f4xx_rcc.o(.text) for RCC_APB2PeriphResetCmd
    stm32f4xx_spi.o(.text) refers to stm32f4xx_rcc.o(.text) for RCC_APB2PeriphResetCmd
    stm32f4xx_tim.o(.text) refers to stm32f4xx_rcc.o(.text) for RCC_APB2PeriphResetCmd
    stm32f4xx_pwr.o(.text) refers to stm32f4xx_rcc.o(.text) for RCC_APB1PeriphResetCmd
    stm32f4xx_dac.o(.text) refers to stm32f4xx_rcc.o(.text) for RCC_APB1PeriphResetCmd
    stm32f4xx_adc.o(.text) refers to stm32f4xx_rcc.o(.text) for RCC_APB2PeriphResetCmd
    stm32f4xx_dma2d.o(.text) refers to stm32f4xx_rcc.o(.text) for RCC_AHB1PeriphResetCmd
    stm32f4xx_syscfg.o(.text) refers to stm32f4xx_rcc.o(.text) for RCC_APB2PeriphResetCmd
    stm32f4x7_eth.o(.text) refers to stm32f4xx_rcc.o(.text) for RCC_AHB1PeriphResetCmd
    stm32f4x7_eth.o(.text) refers to delay.o(.text) for DelayMS
    stm32f4x7_eth.o(.text) refers to stm32f4x7_eth.o(.data) for DMARxDescToGet
    stm32f4x7_eth.o(.text) refers to stm32f4x7_eth.o(.bss) for RX_Frame_Descriptor
    stm32f4xx_fsmc.o(.text) refers to stm32f4xx_fsmc.o(.constdata) for FSMC_DefaultTimingStruct
    bsp.o(.text) refers to stm32f4xx_rcc.o(.text) for RCC_GetClocksFreq
    bsp.o(.text) refers to cpu_core.o(.text) for CPU_TS_TmrFreqSet
    bsp.o(.text) refers to lludivv7m.o(.text) for __aeabi_uldivmod
    cpu_core.o(.text) refers to cpu_a.o(.text) for CPU_SR_Save
    cpu_core.o(.text) refers to lib_mem.o(.text) for Mem_Clr
    cpu_core.o(.text) refers to bsp.o(.text) for CPU_TS_TmrInit
    cpu_core.o(.text) refers to lib_str.o(.text) for Str_Copy_N
    cpu_core.o(.text) refers to cpu_core.o(.bss) for CPU_Name
    cpu_core.o(.text) refers to cpu_core.o(.data) for CPU_TS_TmrFreq_Hz
    cpu_core.o(.text) refers to cpu_core.o(.constdata) for CPU_CntLeadZerosTbl
    cpu_c.o(.text) refers to cpu_a.o(.text) for CPU_SR_Save
    lib_math.o(.text) refers to cpu_a.o(.text) for CPU_SR_Save
    lib_math.o(.text) refers to lib_math.o(.data) for Math_RandSeedCur
    lib_mem.o(.text) refers to lib_mem_a.o(.text) for Mem_Copy
    lib_mem.o(.text) refers to cpu_a.o(.text) for CPU_SR_Save
    lib_mem.o(.text) refers to lib_mem.o(.bss) for Mem_PoolHeap
    lib_mem.o(.text) refers to lib_mem.o(.data) for Mem_PoolTbl
    lib_str.o(.text) refers to lib_ascii.o(.text) for ASCII_ToLower
    lib_str.o(.text) refers to lib_str.o(.constdata) for Str_MultOvfThTbl_Int32U
    os_cfg_app.o(.constdata) refers to os_cfg_app.o(.bss) for OSCfg_IdleTaskStk
    os_core.o(.text) refers to cpu_a.o(.text) for CPU_SR_Save
    os_core.o(.text) refers to os_cpu_c.o(.text) for OSIdleTaskHook
    os_core.o(.text) refers to os_task.o(.text) for OSTaskCreate
    os_core.o(.text) refers to os_prio.o(.text) for OS_PrioInit
    os_core.o(.text) refers to os_mem.o(.text) for OS_MemInit
    os_core.o(.text) refers to os_msg.o(.text) for OS_MsgPoolInit
    os_core.o(.text) refers to os_mutex.o(.text) for OS_MutexInit
    os_core.o(.text) refers to os_q.o(.text) for OS_QInit
    os_core.o(.text) refers to os_sem.o(.text) for OS_SemInit
    os_core.o(.text) refers to os_tick.o(.text) for OS_TickTaskInit
    os_core.o(.text) refers to os_tmr.o(.text) for OS_TmrInit
    os_core.o(.text) refers to os_cfg_app.o(.text) for OSCfg_Init
    os_core.o(.text) refers to os_cpu_a.o(CODE) for OSIntCtxSw
    os_core.o(.text) refers to os_var.o(.data) for OSIdleTaskCtr
    os_core.o(.text) refers to os_cfg_app.o(.constdata) for OSCfg_IdleTaskStkSize
    os_core.o(.text) refers to os_var.o(.bss) for OSIdleTaskTCB
    os_mem.o(.text) refers to cpu_a.o(.text) for CPU_SR_Save
    os_mem.o(.text) refers to os_var.o(.data) for OSIntNestingCtr
    os_msg.o(.text) refers to os_cfg_app.o(.constdata) for OSCfg_MsgPoolBasePtr
    os_msg.o(.text) refers to os_var.o(.bss) for OSMsgPool
    os_mutex.o(.text) refers to cpu_a.o(.text) for CPU_SR_Save
    os_mutex.o(.text) refers to os_core.o(.text) for OS_PendListInit
    os_mutex.o(.text) refers to os_prio.o(.text) for OS_PrioInsert
    os_mutex.o(.text) refers to bsp.o(.text) for CPU_TS_TmrRd
    os_mutex.o(.text) refers to os_var.o(.data) for OSIntNestingCtr
    os_prio.o(.text) refers to cpu_a.o(.text) for CPU_CntLeadZeros
    os_prio.o(.text) refers to os_prio.o(.data) for OSPrioTbl
    os_q.o(.text) refers to cpu_a.o(.text) for CPU_SR_Save
    os_q.o(.text) refers to os_msg.o(.text) for OS_MsgQInit
    os_q.o(.text) refers to os_core.o(.text) for OS_PendListInit
    os_q.o(.text) refers to bsp.o(.text) for CPU_TS_TmrRd
    os_q.o(.text) refers to os_var.o(.data) for OSIntNestingCtr
    os_sem.o(.text) refers to cpu_a.o(.text) for CPU_SR_Save
    os_sem.o(.text) refers to os_core.o(.text) for OS_PendListInit
    os_sem.o(.text) refers to bsp.o(.text) for CPU_TS_TmrRd
    os_sem.o(.text) refers to os_var.o(.data) for OSIntNestingCtr
    os_task.o(.text) refers to cpu_a.o(.text) for CPU_SR_Save
    os_task.o(.text) refers to os_core.o(.text) for OS_RdyListRemove
    os_task.o(.text) refers to os_prio.o(.text) for OS_PrioInsert
    os_task.o(.text) refers to os_msg.o(.text) for OS_MsgQInit
    os_task.o(.text) refers to bsp.o(.text) for CPU_TS_TmrRd
    os_task.o(.text) refers to os_cpu_c.o(.text) for OSTaskStkInit
    os_task.o(.text) refers to os_tick.o(.text) for OS_TickListRemove
    os_task.o(.text) refers to os_var.o(.data) for OSIntNestingCtr
    os_task.o(.text) refers to os_cfg_app.o(.constdata) for OSCfg_StkSizeMin
    os_task.o(.text) refers to os_var.o(.bss) for OSIdleTaskTCB
    os_tick.o(.text) refers to cpu_a.o(.text) for CPU_SR_Save
    os_tick.o(.text) refers to bsp.o(.text) for CPU_TS_TmrRd
    os_tick.o(.text) refers to os_core.o(.text) for OS_TaskRdy
    os_tick.o(.text) refers to os_task.o(.text) for OSTaskSemPend
    os_tick.o(.text) refers to os_var.o(.data) for OSTickCtr
    os_tick.o(.text) refers to os_cfg_app.o(.constdata) for OSCfg_TickWheelSize
    os_tick.o(.text) refers to os_cfg_app.o(.bss) for OSCfg_TickWheel
    os_tick.o(.text) refers to os_var.o(.bss) for OSTickTaskTCB
    os_time.o(.text) refers to cpu_a.o(.text) for CPU_SR_Save
    os_time.o(.text) refers to os_tick.o(.text) for OS_TickListInsert
    os_time.o(.text) refers to os_core.o(.text) for OS_RdyListRemove
    os_time.o(.text) refers to os_var.o(.data) for OSIntNestingCtr
    os_time.o(.text) refers to os_cfg_app.o(.constdata) for OSCfg_TickRate_Hz
    os_time.o(.text) refers to os_cpu_c.o(.text) for OSTimeTickHook
    os_time.o(.text) refers to os_task.o(.text) for OSTaskSemPost
    os_time.o(.text) refers to os_var.o(.bss) for OSTickTaskTCB
    os_tmr.o(.text) refers to cpu_a.o(.text) for CPU_SR_Save
    os_tmr.o(.text) refers to os_core.o(.text) for OSSchedLock
    os_tmr.o(.text) refers to os_var.o(.data) for OSIntNestingCtr
    os_tmr.o(.text) refers to os_cfg_app.o(.constdata) for OSCfg_TmrWheelSize
    os_tmr.o(.text) refers to os_cfg_app.o(.bss) for OSCfg_TmrWheel
    os_tmr.o(.text) refers to os_task.o(.text) for OSTaskSemPend
    os_tmr.o(.text) refers to bsp.o(.text) for CPU_TS_TmrRd
    os_tmr.o(.text) refers to os_var.o(.bss) for OSTmrTaskTCB
    os_cpu_c.o(.text) refers to bsp.o(.text) for CPU_TS_TmrRd
    os_cpu_c.o(.text) refers to cpu_a.o(.text) for CPU_SR_Save
    os_cpu_c.o(.text) refers to os_time.o(.text) for OSTimeTick
    os_cpu_c.o(.text) refers to os_core.o(.text) for OSIntExit
    os_cpu_c.o(.text) refers to os_cfg_app.o(.constdata) for OSCfg_ISRStkBasePtr
    os_cpu_c.o(.text) refers to os_cpu_c.o(.data) for OS_CPU_ExceptStkBase
    os_cpu_c.o(.text) refers to os_task.o(.text) for OS_TaskReturn
    os_cpu_c.o(.text) refers to os_var.o(.data) for OSTCBCurPtr
    os_cpu_a.o(CODE) refers to os_cpu_c.o(.data) for OS_CPU_ExceptStkBase
    os_cpu_a.o(CODE) refers to os_var.o(.data) for OSTCBCurPtr
    os_cpu_a.o(CODE) refers to os_cpu_c.o(.text) for OSTaskSwHook
    delay.o(.text) refers to os_time.o(.text) for OSTimeDlyHMSM
    delay.o(.text) refers to os_core.o(.text) for OSSchedRoundRobinYield
    delay.o(.text) refers to misc.o(.text) for SysTick_CLKSourceConfig
    delay.o(.text) refers to delay.o(.data) for cdvTimeTick
    delay.o(.text) refers to os_cfg_app.o(.constdata) for OSCfg_TickRate_Hz
    delay.o(.text) refers to os_var.o(.data) for OSRunning
    delay.o(.text) refers to delay.o(.bss) for cdvStartTime
    flash.o(.text) refers to stm32f4xx_gpio.o(.text) for GPIO_SetBits
    flash.o(.text) refers to spix.o(.text) for SPIx_ReadWriteByte
    flash.o(.text) refers to os_sem.o(.text) for OSSemPend
    flash.o(.text) refers to malloc.o(.text) for UserMemPtr
    flash.o(.text) refers to cdv_define.o(.bss) for MOTO_SEM
    flash.o(.text) refers to cdv_config.o(.data) for g_noWrite
    flash.o(.text) refers to delay.o(.text) for delay_ms
    flash.o(.text) refers to flash.o(.data) for CHECK_FLASH
    flash.o(.text) refers to alarm.o(.data) for Alarmflag
    rtc.o(.text) refers to _printf_percent.o(.ARM.Collect$$_printf_percent$$00000000) for _printf_percent
    rtc.o(.text) refers to _printf_d.o(.ARM.Collect$$_printf_percent$$00000009) for _printf_d
    rtc.o(.text) refers to _printf_dec.o(.text) for _printf_int_dec
    rtc.o(.text) refers to rt_memclr_w.o(.text) for __aeabi_memclr4
    rtc.o(.text) refers to noretval__2sprintf.o(.text) for __2sprintf
    rtc.o(.text) refers to log.o(.text) for Log_Write
    rtc.o(.text) refers to stm32f4xx_rtc.o(.text) for RTC_SetTime
    rtc.o(.text) refers to stm32f4xx_rcc.o(.text) for RCC_APB1PeriphClockCmd
    rtc.o(.text) refers to stm32f4xx_pwr.o(.text) for PWR_BackupAccessCmd
    rtc.o(.text) refers to cdv_config.o(.text) for DelayUS
    malloc.o(.text) refers to malloc.o(.constdata) for memtblsize
    malloc.o(.text) refers to malloc.o(.data) for mallco_dev
    malloc.o(.text) refers to malloc.o(.ARM.__AT_0x10009000) for usermem
    malloc.o(.data) refers to malloc.o(.text) for mymem_init
    malloc.o(.data) refers to malloc.o(.ARM.__AT_0x10000000) for mem3base
    malloc.o(.data) refers to malloc.o(.ARM.__AT_0x10008000) for mem3mapbase
    flash_if.o(.text) refers to stm32f4xx_flash.o(.text) for FLASH_Unlock
    ethernetif.o(.text) refers to cdv_config.o(.text) for MemCpy
    ethernetif.o(.text) refers to stm32f4x7_eth.o(.text) for ETH_Prepare_Transmit_Descriptors
    ethernetif.o(.text) refers to pbuf.o(.text) for pbuf_alloc
    ethernetif.o(.text) refers to etharp.o(.text) for etharp_tmr
    ethernetif.o(.text) refers to timers.o(.text) for sys_timeout
    ethernetif.o(.text) refers to stm32f4x7_eth.o(.data) for DMATxDescToSet
    ethernetif.o(.text) refers to lwip_comm.o(.bss) for lwipdev
    ethernetif.o(.text) refers to lan8720.o(.data) for Tx_Buff
    sys_arch.o(.text) refers to os_q.o(.text) for OSQCreate
    sys_arch.o(.text) refers to strlen.o(.text) for strlen
    sys_arch.o(.text) refers to os_time.o(.text) for OSTimeDlyHMSM
    sys_arch.o(.text) refers to strcmpv7m.o(.text) for strcmp
    sys_arch.o(.text) refers to os_sem.o(.text) for OSSemCreate
    sys_arch.o(.text) refers to cpu_a.o(.text) for CPU_SR_Save
    sys_arch.o(.text) refers to os_task.o(.text) for OSTaskCreate
    sys_arch.o(.text) refers to delay.o(.text) for delay_ms
    sys_arch.o(.text) refers to sys_arch.o(.constdata) for pvNullPointer
    sys_arch.o(.text) refers to lwip_comm.o(.data) for TCPIP_THREAD_TASK_STK
    sys_arch.o(.text) refers to sys_arch.o(.bss) for TcpipthreadTaskTCB
    etharp.o(.text) refers to pbuf.o(.text) for pbuf_free
    etharp.o(.text) refers to cdv_config.o(.text) for MemCpy
    etharp.o(.text) refers to ip_addr.o(.text) for ip4_addr_isbroadcast
    etharp.o(.text) refers to etharp.o(.bss) for arp_table
    etharp.o(.text) refers to def.o(.text) for lwip_htons
    etharp.o(.text) refers to memcmp.o(.text) for memcmp
    etharp.o(.text) refers to ip.o(.text) for ip_input
    etharp.o(.text) refers to etharp.o(.constdata) for ethzero
    etharp.o(.text) refers to etharp.o(.data) for etharp_cached_entry
    api_lib.o(.text) refers to api_msg.o(.text) for netconn_alloc
    api_lib.o(.text) refers to tcpip.o(.text) for tcpip_apimsg
    api_lib.o(.text) refers to sys_arch.o(.text) for sys_sem_valid
    api_lib.o(.text) refers to memp.o(.text) for memp_free
    api_lib.o(.text) refers to cpu_a.o(.text) for CPU_SR_Save
    api_msg.o(.text) refers to sys_arch.o(.text) for sys_mbox_valid
    api_msg.o(.text) refers to pbuf.o(.text) for pbuf_alloc
    api_msg.o(.text) refers to memp.o(.text) for memp_malloc
    api_msg.o(.text) refers to netbuf.o(.text) for netbuf_delete
    api_msg.o(.text) refers to tcp.o(.text) for tcp_recved
    api_msg.o(.text) refers to cpu_a.o(.text) for CPU_SR_Save
    api_msg.o(.text) refers to tcp_out.o(.text) for tcp_write
    api_msg.o(.text) refers to ip.o(.data) for current_iphdr_src
    api_msg.o(.text) refers to raw.o(.text) for raw_new
    api_msg.o(.text) refers to udp.o(.text) for udp_new
    netbuf.o(.text) refers to memp.o(.text) for memp_malloc
    netbuf.o(.text) refers to pbuf.o(.text) for pbuf_free
    tcpip.o(.text) refers to timers.o(.text) for sys_timeouts_mbox_fetch
    tcpip.o(.text) refers to etharp.o(.text) for ethernet_input
    tcpip.o(.text) refers to ip.o(.text) for ip_input
    tcpip.o(.text) refers to memp.o(.text) for memp_free
    tcpip.o(.text) refers to sys_arch.o(.text) for sys_mbox_valid
    tcpip.o(.text) refers to init.o(.text) for lwip_init
    tcpip.o(.text) refers to pbuf.o(.text) for pbuf_free
    tcpip.o(.text) refers to tcpip.o(.data) for tcpip_init_done
    tcpip.o(.text) refers to tcpip.o(.bss) for mbox
    tcpip.o(.text) refers to mem.o(.text) for mem_free
    init.o(.text) refers to sys_arch.o(.text) for sys_init
    init.o(.text) refers to mem.o(.text) for mem_init
    init.o(.text) refers to memp.o(.text) for memp_init
    init.o(.text) refers to netif.o(.text) for netif_init
    init.o(.text) refers to udp.o(.text) for udp_init
    init.o(.text) refers to tcp.o(.text) for tcp_init
    init.o(.text) refers to timers.o(.text) for sys_timeouts_init
    mem.o(.text) refers to sys_arch.o(.text) for sys_sem_new
    mem.o(.text) refers to cpu_a.o(.text) for CPU_SR_Save
    mem.o(.text) refers to rt_memclr.o(.text) for __aeabi_memclr
    mem.o(.text) refers to mem.o(.data) for ram
    mem.o(.text) refers to mem.o(.bss) for ram_heap
    memp.o(.text) refers to cpu_a.o(.text) for CPU_SR_Save
    memp.o(.text) refers to memp.o(.bss) for memp_memory
    memp.o(.text) refers to memp.o(.constdata) for memp_sizes
    netif.o(.text) refers to tcp.o(.text) for tcp_abort
    netif.o(.text) refers to etharp.o(.text) for etharp_cleanup_netif
    netif.o(.text) refers to tcp.o(.data) for tcp_active_pcbs
    netif.o(.text) refers to netif.o(.data) for netif_num
    pbuf.o(.text) refers to cpu_a.o(.text) for CPU_SR_Save
    pbuf.o(.text) refers to memp.o(.text) for memp_free
    pbuf.o(.text) refers to mem.o(.text) for mem_free
    pbuf.o(.text) refers to cdv_config.o(.text) for MemCpy
    pbuf.o(.text) refers to strlen.o(.text) for strlen
    raw.o(.text) refers to pbuf.o(.text) for pbuf_header
    raw.o(.text) refers to ip.o(.text) for ip_route
    raw.o(.text) refers to memp.o(.text) for memp_free
    raw.o(.text) refers to rt_memclr_w.o(.text) for __aeabi_memclr4
    raw.o(.text) refers to raw.o(.data) for raw_pcbs
    raw.o(.text) refers to ip.o(.data) for current_iphdr_dest
    tcp.o(.text) refers to pbuf.o(.text) for pbuf_free
    tcp.o(.text) refers to memp.o(.text) for memp_free
    tcp.o(.text) refers to tcp_out.o(.text) for tcp_zero_window_probe
    tcp.o(.text) refers to tcp.o(.data) for tcp_ticks
    tcp.o(.text) refers to tcp.o(.constdata) for tcp_persist_backoff
    tcp.o(.text) refers to timers.o(.text) for tcp_timer_needed
    tcp.o(.text) refers to ip.o(.text) for ip_route
    tcp.o(.text) refers to rt_memclr_w.o(.text) for __aeabi_memclr4
    tcp.o(.constdata) refers to tcp.o(.conststring) for .conststring
    tcp.o(.constdata) refers to tcp.o(.data) for tcp_listen_pcbs
    tcp_in.o(.text) refers to tcp_out.o(.text) for tcp_rexmit_fast
    tcp_in.o(.text) refers to pbuf.o(.text) for pbuf_clen
    tcp_in.o(.text) refers to def.o(.text) for lwip_ntohs
    tcp_in.o(.text) refers to tcp.o(.text) for tcp_seg_free
    tcp_in.o(.text) refers to tcp_in.o(.data) for flags
    tcp_in.o(.text) refers to tcp.o(.data) for tcp_ticks
    tcp_in.o(.text) refers to tcp_in.o(.bss) for inseg
    tcp_in.o(.text) refers to timers.o(.text) for tcp_timer_needed
    tcp_in.o(.text) refers to ip.o(.data) for current_iphdr_src
    tcp_in.o(.text) refers to ip_addr.o(.text) for ip4_addr_isbroadcast
    tcp_in.o(.text) refers to memp.o(.text) for memp_free
    tcp_out.o(.text) refers to pbuf.o(.text) for pbuf_alloc
    tcp_out.o(.text) refers to def.o(.text) for lwip_htons
    tcp_out.o(.text) refers to memp.o(.text) for memp_malloc
    tcp_out.o(.text) refers to tcp.o(.text) for tcp_seg_free
    tcp_out.o(.text) refers to cdv_config.o(.text) for MemCpy
    tcp_out.o(.text) refers to ip.o(.text) for ip_output
    tcp_out.o(.text) refers to tcp.o(.data) for tcp_ticks
    tcp_out.o(.text) refers to tcp_in.o(.data) for tcp_input_pcb
    timers.o(.text) refers to memp.o(.text) for memp_malloc
    timers.o(.text) refers to tcp.o(.text) for tcp_tmr
    timers.o(.text) refers to ip_frag.o(.text) for ip_reass_tmr
    timers.o(.text) refers to etharp.o(.text) for etharp_tmr
    timers.o(.text) refers to sys_arch.o(.text) for sys_arch_mbox_fetch
    timers.o(.text) refers to timers.o(.data) for next_timeout
    timers.o(.text) refers to tcp.o(.data) for tcp_active_pcbs
    udp.o(.text) refers to pbuf.o(.text) for pbuf_header
    udp.o(.text) refers to ip_addr.o(.text) for ip4_addr_isbroadcast
    udp.o(.text) refers to def.o(.text) for lwip_ntohs
    udp.o(.text) refers to icmp.o(.text) for icmp_dest_unreach
    udp.o(.text) refers to ip.o(.text) for ip_output_if
    udp.o(.text) refers to udp.o(.data) for udp_port
    udp.o(.text) refers to ip.o(.data) for current_iphdr_dest
    udp.o(.text) refers to memp.o(.text) for memp_free
    udp.o(.text) refers to rt_memclr_w.o(.text) for __aeabi_memclr4
    icmp.o(.text) refers to pbuf.o(.text) for pbuf_header
    icmp.o(.text) refers to ip_addr.o(.text) for ip4_addr_isbroadcast
    icmp.o(.text) refers to inet_chksum.o(.text) for inet_chksum_pbuf
    icmp.o(.text) refers to ip.o(.text) for ip_output_if
    icmp.o(.text) refers to cdv_config.o(.text) for MemCpy
    icmp.o(.text) refers to ip.o(.data) for current_iphdr_dest
    inet_chksum.o(.text) refers to def.o(.text) for lwip_htons
    ip.o(.text) refers to pbuf.o(.text) for pbuf_free
    ip.o(.text) refers to def.o(.text) for lwip_ntohs
    ip.o(.text) refers to ip_addr.o(.text) for ip4_addr_isbroadcast
    ip.o(.text) refers to ip_frag.o(.text) for ip_reass
    ip.o(.text) refers to raw.o(.text) for raw_input
    ip.o(.text) refers to udp.o(.text) for udp_input
    ip.o(.text) refers to tcp_in.o(.text) for tcp_input
    ip.o(.text) refers to icmp.o(.text) for icmp_input
    ip.o(.text) refers to netif.o(.data) for netif_list
    ip.o(.text) refers to ip.o(.data) for current_iphdr_dest
    ip_addr.o(.text) refers to def.o(.text) for lwip_htonl
    ip_addr.o(.text) refers to rt_ctype_table.o(.text) for __rt_ctype_table
    ip_addr.o(.text) refers to ip_addr.o(.bss) for str
    ip_frag.o(.text) refers to memp.o(.text) for memp_free
    ip_frag.o(.text) refers to cdv_config.o(.text) for MemCpy
    ip_frag.o(.text) refers to icmp.o(.text) for icmp_time_exceeded
    ip_frag.o(.text) refers to pbuf.o(.text) for pbuf_clen
    ip_frag.o(.text) refers to rt_memclr_w.o(.text) for __aeabi_memclr4
    ip_frag.o(.text) refers to def.o(.text) for lwip_ntohs
    ip_frag.o(.text) refers to ip_frag.o(.data) for reassdatagrams
    ip_frag.o(.text) refers to inet_chksum.o(.text) for inet_chksum
    lwip_comm.o(.text) refers to ethernetif.o(.text) for ethernetif_input
    lwip_comm.o(.text) refers to malloc.o(.text) for UserMemPtr
    lwip_comm.o(.text) refers to flash.o(.text) for Org_Flash_Read
    lwip_comm.o(.text) refers to lan8720.o(.text) for ETH_Mem_Malloc
    lwip_comm.o(.text) refers to tcpip.o(.text) for tcpip_init
    lwip_comm.o(.text) refers to cpu_a.o(.text) for CPU_SR_Save
    lwip_comm.o(.text) refers to netif.o(.text) for netif_add
    lwip_comm.o(.text) refers to cdv_config.o(.text) for assert
    lwip_comm.o(.text) refers to lwip_comm.o(.bss) for lwip_netif
    lwip_comm.o(.text) refers to lwip_comm.o(.data) for TCPIP_THREAD_TASK_STK
    lwip_comm.o(.text) refers to lwip_comm.o(.constdata) for __FUNCTION__
    lwip_comm.o(.text) refers to lan8720.o(.data) for EthStatus
    fs.o(.text) refers to strcmpv7m.o(.text) for strcmp
    fs.o(.text) refers to cdv_config.o(.text) for MemCpy
    fs.o(.text) refers to fs.o(.bss) for fs_memory
    fs.o(.text) refers to fs.o(.constdata) for file__STM32F4x7LED_html
    httpd.o(.text) refers to strlen.o(.text) for strlen
    httpd.o(.text) refers to strncmp.o(.text) for strncmp
    httpd.o(.text) refers to mem.o(.text) for mem_malloc
    httpd.o(.text) refers to rt_memclr_w.o(.text) for __aeabi_memclr4
    httpd.o(.text) refers to fs.o(.text) for fs_close
    httpd.o(.text) refers to tcp_out.o(.text) for tcp_write
    httpd.o(.text) refers to strcmpv7m.o(.text) for strcmp
    httpd.o(.text) refers to cdv_config.o(.text) for MemCpy
    httpd.o(.text) refers to httpd.o(.data) for g_pfnSSIHandler
    httpd.o(.text) refers to httpd.o(.constdata) for g_pcTagLeadIn
    httpd.o(.text) refers to tcp.o(.text) for tcp_arg
    httpd.o(.text) refers to strchr.o(.text) for strchr
    httpd.o(.text) refers to strstr.o(.text) for strstr
    httpd.o(.text) refers to pbuf.o(.text) for pbuf_cat
    httpd.o(.text) refers to httpd_cgi_ssi.o(.text) for httpd_ssi_init
    httpd.o(.text) refers to httpd.o(.bss) for httpd_req_buf
    httpd.o(.text) refers to ip_addr.o(.constdata) for ip_addr_any
    httpd.o(.constdata) refers to httpd.o(.conststring) for .conststring
    httpd.o(.data) refers to httpd.o(.conststring) for .conststring
    httpd_cgi_ssi.o(.text) refers to adc.o(.text) for AdcRead
    httpd_cgi_ssi.o(.text) refers to var.o(.text) for VarGet
    httpd_cgi_ssi.o(.text) refers to strcmpv7m.o(.text) for strcmp
    httpd_cgi_ssi.o(.text) refers to httpd.o(.text) for http_set_ssi_handler
    httpd_cgi_ssi.o(.text) refers to httpd_cgi_ssi.o(.data) for TAGS
    httpd_cgi_ssi.o(.text) refers to httpd_cgi_ssi.o(.constdata) for LEDS_CGI
    httpd_cgi_ssi.o(.constdata) refers to httpd_cgi_ssi.o(.conststring) for .conststring
    httpd_cgi_ssi.o(.constdata) refers to httpd_cgi_ssi.o(.text) for LEDS_CGI_Handler
    httpd_cgi_ssi.o(.data) refers to httpd_cgi_ssi.o(.conststring) for .conststring
    rt_ctype_table.o(.text) refers to rt_locale_intlibspace.o(.text) for __rt_locale
    rt_ctype_table.o(.text) refers to lc_ctype_c.o(locale$$code) for _get_lc_ctype
    malloc.o(.text) refers (Special) to hguard.o(.text) for __heap$guard
    malloc.o(.text) refers (Special) to init_alloc.o(.text) for _init_alloc
    malloc.o(.text) refers to rt_heap_descriptor_intlibspace.o(.text) for __rt_heap_descriptor
    malloc.o(.text) refers to heapstubs.o(.text) for __Heap_Alloc
    free.o(.text) refers (Special) to hguard.o(.text) for __heap$guard
    free.o(.text) refers to rt_heap_descriptor_intlibspace.o(.text) for __rt_heap_descriptor
    free.o(.text) refers to heapstubs.o(.text) for __Heap_Free
    realloc.o(.text) refers (Special) to hguard.o(.text) for __heap$guard
    realloc.o(.text) refers to rt_heap_descriptor_intlibspace.o(.text) for __rt_heap_descriptor
    realloc.o(.text) refers to heapstubs.o(.text) for __Heap_Realloc
    realloc.o(.text) refers to h1_free.o(.text) for free
    realloc.o(.text) refers to h1_alloc.o(.text) for malloc
    h1_alloc.o(.text) refers (Special) to h1_init.o(.text) for __Heap_Initialize
    h1_alloc.o(.text) refers to rt_heap_descriptor_intlibspace.o(.text) for __rt_heap_descriptor
    h1_alloc.o(.text) refers to init_alloc.o(.text) for __Heap_Full
    h1_free.o(.text) refers to rt_heap_descriptor_intlibspace.o(.text) for __rt_heap_descriptor
    h1_realloc.o(.text) refers to rt_heap_descriptor_intlibspace.o(.text) for __rt_heap_descriptor
    h1_realloc.o(.text) refers to h1_free.o(.text) for free
    h1_realloc.o(.text) refers to h1_alloc.o(.text) for malloc
    h1_realloc.o(.text) refers to rt_memcpy_w.o(.text) for __aeabi_memcpy4
    h1_alloc_mt.o(.text) refers (Special) to h1_init.o(.text) for __Heap_Initialize
    h1_alloc_mt.o(.text) refers to init_alloc.o(.text) for __Heap_Full
    h1_alloc_mt.o(.text) refers to rt_heap_descriptor_intlibspace.o(.text) for __rt_heap_descriptor
    h1_free_mt.o(.text) refers to rt_heap_descriptor_intlibspace.o(.text) for __rt_heap_descriptor
    h1_realloc_mt.o(.text) refers to rt_heap_descriptor_intlibspace.o(.text) for __rt_heap_descriptor
    h1_realloc_mt.o(.text) refers to h1_free_mt.o(.text) for _free_internal
    h1_realloc_mt.o(.text) refers to h1_free.o(.text) for free
    h1_realloc_mt.o(.text) refers to h1_alloc.o(.text) for malloc
    h1_realloc_mt.o(.text) refers to h1_alloc_mt.o(.text) for _malloc_internal
    h1_realloc_mt.o(.text) refers to rt_memcpy_w.o(.text) for __aeabi_memcpy4
    heap2.o(i._FDIterate) refers to heap2.o(.conststring) for .conststring
    heap2.o(i.___Heap_ProvideMemory$realtime) refers to fdtree.o(i._FDTree_Delete) for _FDTree_Delete
    heap2.o(i.___Heap_ProvideMemory$realtime) refers to fdtree.o(i._FDTree_Insert) for _FDTree_Insert
    heap2.o(i.___Heap_Stats$realtime) refers to heap2.o(i._Heap2_StatsIterate) for _Heap2_StatsIterate
    heap2.o(i.___Heap_Valid$realtime) refers to heap2.o(i._FDIterate) for _FDIterate
    heap2.o(i.___Heap_Valid$realtime) refers to heap2.o(.conststring) for .conststring
    heap2.o(i._free$realtime) refers to rt_heap_descriptor_intlibspace.o(.text) for __rt_heap_descriptor
    heap2.o(i._free$realtime) refers to fdtree.o(i._FDTree_Delete) for _FDTree_Delete
    heap2.o(i._free$realtime) refers to fdtree.o(i._FDTree_Insert) for _FDTree_Insert
    heap2.o(i._malloc$realtime) refers to rt_heap_descriptor_intlibspace.o(.text) for __rt_heap_descriptor
    heap2.o(i._malloc$realtime) refers to fdtree.o(i._FDTree_FindFirst) for _FDTree_FindFirst
    heap2.o(i._malloc$realtime) refers to init_alloc.o(.text) for __Heap_Full
    heap2.o(i._malloc$realtime) refers to fdtree.o(i._FDTree_RemoveNode) for _FDTree_RemoveNode
    heap2.o(i._malloc$realtime) refers to fdtree.o(i._FDTree_Insert) for _FDTree_Insert
    heap2.o(i._posix_memalign$realtime) refers to rt_heap_descriptor_intlibspace.o(.text) for __rt_heap_descriptor
    heap2.o(i._posix_memalign$realtime) refers to fdtree.o(i._FDTree_FindFirst) for _FDTree_FindFirst
    heap2.o(i._posix_memalign$realtime) refers to init_alloc.o(.text) for __Heap_Full
    heap2.o(i._posix_memalign$realtime) refers to fdtree.o(i._FDTree_RemoveNode) for _FDTree_RemoveNode
    heap2.o(i._posix_memalign$realtime) refers to fdtree.o(i._FDTree_Insert) for _FDTree_Insert
    heap2.o(i._realloc$realtime) refers to rt_heap_descriptor_intlibspace.o(.text) for __rt_heap_descriptor
    heap2.o(i._realloc$realtime) refers to fdtree.o(i._FDTree_Insert) for _FDTree_Insert
    heap2.o(i._realloc$realtime) refers to h1_free.o(.text) for free
    heap2.o(i._realloc$realtime) refers to h1_alloc.o(.text) for malloc
    heap2.o(i._realloc$realtime) refers to fdtree.o(i._FDTree_Delete) for _FDTree_Delete
    heap2.o(i._realloc$realtime) refers to rt_memcpy_w.o(.text) for __aeabi_memcpy4
    heap2mt.o(i._FDIterate) refers to heap2mt.o(.conststring) for .conststring
    heap2mt.o(i.___Heap_Initialize$realtime$concurrent) refers to mutex_dummy.o(.text) for _mutex_initialize
    heap2mt.o(i.___Heap_ProvideMemory$realtime$concurrent) refers to fdtree.o(i._FDTree_Delete) for _FDTree_Delete
    heap2mt.o(i.___Heap_ProvideMemory$realtime$concurrent) refers to fdtree.o(i._FDTree_Insert) for _FDTree_Insert
    heap2mt.o(i.___Heap_Stats$realtime$concurrent) refers to heap2mt.o(i._Heap2_StatsIterate) for _Heap2_StatsIterate
    heap2mt.o(i.___Heap_Valid$realtime$concurrent) refers to heap2mt.o(i._FDIterate) for _FDIterate
    heap2mt.o(i.___Heap_Valid$realtime$concurrent) refers to heap2mt.o(.conststring) for .conststring
    heap2mt.o(i._free$realtime$concurrent) refers to rt_heap_descriptor_intlibspace.o(.text) for __rt_heap_descriptor
    heap2mt.o(i._free$realtime$concurrent) refers to fdtree.o(i._FDTree_Delete) for _FDTree_Delete
    heap2mt.o(i._free$realtime$concurrent) refers to fdtree.o(i._FDTree_Insert) for _FDTree_Insert
    heap2mt.o(i._malloc$realtime$concurrent) refers to rt_heap_descriptor_intlibspace.o(.text) for __rt_heap_descriptor
    heap2mt.o(i._malloc$realtime$concurrent) refers to fdtree.o(i._FDTree_FindFirst) for _FDTree_FindFirst
    heap2mt.o(i._malloc$realtime$concurrent) refers to init_alloc.o(.text) for __Heap_Full
    heap2mt.o(i._malloc$realtime$concurrent) refers to fdtree.o(i._FDTree_RemoveNode) for _FDTree_RemoveNode
    heap2mt.o(i._malloc$realtime$concurrent) refers to fdtree.o(i._FDTree_Insert) for _FDTree_Insert
    heap2mt.o(i._posix_memalign$realtime$concurrent) refers to rt_heap_descriptor_intlibspace.o(.text) for __rt_heap_descriptor
    heap2mt.o(i._posix_memalign$realtime$concurrent) refers to fdtree.o(i._FDTree_FindFirst) for _FDTree_FindFirst
    heap2mt.o(i._posix_memalign$realtime$concurrent) refers to init_alloc.o(.text) for __Heap_Full
    heap2mt.o(i._posix_memalign$realtime$concurrent) refers to fdtree.o(i._FDTree_RemoveNode) for _FDTree_RemoveNode
    heap2mt.o(i._posix_memalign$realtime$concurrent) refers to fdtree.o(i._FDTree_Insert) for _FDTree_Insert
    heap2mt.o(i._realloc$realtime$concurrent) refers to rt_heap_descriptor_intlibspace.o(.text) for __rt_heap_descriptor
    heap2mt.o(i._realloc$realtime$concurrent) refers to fdtree.o(i._FDTree_Insert) for _FDTree_Insert
    heap2mt.o(i._realloc$realtime$concurrent) refers to h1_free.o(.text) for free
    heap2mt.o(i._realloc$realtime$concurrent) refers to h1_alloc.o(.text) for malloc
    heap2mt.o(i._realloc$realtime$concurrent) refers to fdtree.o(i._FDTree_Delete) for _FDTree_Delete
    heap2mt.o(i._realloc$realtime$concurrent) refers to rt_memcpy_w.o(.text) for __aeabi_memcpy4
    __2sprintf.o(.text) refers to _printf_char_common.o(.text) for _printf_char_common
    __2sprintf.o(.text) refers to _sputc.o(.text) for _sputc
    noretval__2sprintf.o(.text) refers to _printf_char_common.o(.text) for _printf_char_common
    noretval__2sprintf.o(.text) refers to _sputc.o(.text) for _sputc
    __printf.o(.text) refers to _printf_percent.o(.ARM.Collect$$_printf_percent$$00000000) for _printf_percent
    _printf_str.o(.text) refers (Special) to _printf_char.o(.text) for _printf_cs_common
    _printf_str.o(.text) refers (Weak) to _printf_pad.o(.text) for _printf_pre_padding
    _printf_str.o(.text) refers (Weak) to _printf_pad.o(.text) for _printf_post_padding
    _printf_dec.o(.text) refers to _printf_intcommon.o(.text) for _printf_int_common
    _printf_hex_ll.o(.text) refers to _printf_intcommon.o(.text) for _printf_int_common
    _printf_hex_ll.o(.text) refers to _printf_hex_ll.o(.constdata) for .constdata
    _printf_hex_int.o(.text) refers to _printf_intcommon.o(.text) for _printf_int_common
    _printf_hex_int.o(.text) refers to _printf_hex_int.o(.constdata) for .constdata
    _printf_hex_int_ll.o(.text) refers to _printf_intcommon.o(.text) for _printf_int_common
    _printf_hex_int_ll.o(.text) refers to _printf_hex_int_ll.o(.constdata) for .constdata
    _printf_hex_ptr.o(.text) refers to _printf_intcommon.o(.text) for _printf_int_common
    _printf_hex_ptr.o(.text) refers to _printf_hex_ptr.o(.constdata) for .constdata
    _printf_hex_int_ptr.o(.text) refers to _printf_intcommon.o(.text) for _printf_int_common
    _printf_hex_int_ptr.o(.text) refers to _printf_hex_int_ptr.o(.constdata) for .constdata
    _printf_hex_ll_ptr.o(.text) refers to _printf_intcommon.o(.text) for _printf_int_common
    _printf_hex_ll_ptr.o(.text) refers to _printf_hex_ll_ptr.o(.constdata) for .constdata
    _printf_hex_int_ll_ptr.o(.text) refers to _printf_intcommon.o(.text) for _printf_int_common
    _printf_hex_int_ll_ptr.o(.text) refers to _printf_hex_int_ll_ptr.o(.constdata) for .constdata
    __printf_flags.o(.text) refers to _printf_percent.o(.ARM.Collect$$_printf_percent$$00000000) for _printf_percent
    __printf_flags.o(.text) refers to __printf_flags.o(.constdata) for .constdata
    __printf_ss.o(.text) refers to _printf_percent.o(.ARM.Collect$$_printf_percent$$00000000) for _printf_percent
    __printf_flags_ss.o(.text) refers to _printf_percent.o(.ARM.Collect$$_printf_percent$$00000000) for _printf_percent
    __printf_flags_ss.o(.text) refers to __printf_flags_ss.o(.constdata) for .constdata
    __printf_wp.o(.text) refers to __printf_wp.o(i._is_digit) for _is_digit
    __printf_wp.o(.text) refers to _printf_percent.o(.ARM.Collect$$_printf_percent$$00000000) for _printf_percent
    __printf_flags_wp.o(.text) refers to __printf_wp.o(i._is_digit) for _is_digit
    __printf_flags_wp.o(.text) refers to _printf_percent.o(.ARM.Collect$$_printf_percent$$00000000) for _printf_percent
    __printf_flags_wp.o(.text) refers to __printf_flags_wp.o(.constdata) for .constdata
    __printf_ss_wp.o(.text) refers to __printf_wp.o(i._is_digit) for _is_digit
    __printf_ss_wp.o(.text) refers to _printf_percent.o(.ARM.Collect$$_printf_percent$$00000000) for _printf_percent
    __printf_flags_ss_wp.o(.text) refers to __printf_wp.o(i._is_digit) for _is_digit
    __printf_flags_ss_wp.o(.text) refers to _printf_percent.o(.ARM.Collect$$_printf_percent$$00000000) for _printf_percent
    __printf_flags_ss_wp.o(.text) refers to __printf_flags_ss_wp.o(.constdata) for .constdata
    _printf_s.o(.ARM.Collect$$_printf_percent$$00000014) refers (Weak) to _printf_char.o(.text) for _printf_string
    _printf_x.o(.ARM.Collect$$_printf_percent$$0000000C) refers (Weak) to _printf_hex_int.o(.text) for _printf_int_hex
    _printf_d.o(.ARM.Collect$$_printf_percent$$00000009) refers (Weak) to _printf_dec.o(.text) for _printf_int_dec
    _printf_f.o(.ARM.Collect$$_printf_percent$$00000003) refers (Weak) to printf1.o(x$fpl$printf1) for _printf_fp_dec
    _printf_percent.o(.ARM.Collect$$_printf_percent$$00000000) refers (Special) to _printf_percent_end.o(.ARM.Collect$$_printf_percent$$00000017) for _printf_percent_end
    atoi.o(.text) refers to rt_errno_addr_intlibspace.o(.text) for __aeabi_errno_addr
    atoi.o(.text) refers to strtol.o(.text) for strtol
    rt_memcpy_v6.o(.text) refers to rt_memcpy_w.o(.text) for __aeabi_memcpy4
    aeabi_memset.o(.text) refers to rt_memclr.o(.text) for _memset
    rt_memclr.o(.text) refers to rt_memclr_w.o(.text) for _memset_w
    __main.o(!!!main) refers to __rtentry.o(.ARM.Collect$$rtentry$$00000000) for __rt_entry
    d2f.o(x$fpl$d2f) refers (Special) to usenofp.o(x$fpl$usenofp) for __I$use$fp
    d2f.o(x$fpl$d2f) refers to fretinf.o(x$fpl$fretinf) for __fpl_fretinf
    d2f.o(x$fpl$d2f) refers to dnaninf.o(x$fpl$dnaninf) for __fpl_dnaninf
    daddsub_clz.o(x$fpl$dadd) refers (Special) to usenofp.o(x$fpl$usenofp) for __I$use$fp
    daddsub_clz.o(x$fpl$dadd) refers to daddsub_clz.o(x$fpl$dsub) for _dsub1
    daddsub_clz.o(x$fpl$dadd) refers to dretinf.o(x$fpl$dretinf) for __fpl_dretinf
    daddsub_clz.o(x$fpl$dadd) refers to dnaninf.o(x$fpl$dnaninf) for __fpl_dnaninf
    daddsub_clz.o(x$fpl$drsb) refers (Special) to usenofp.o(x$fpl$usenofp) for __I$use$fp
    daddsub_clz.o(x$fpl$drsb) refers to daddsub_clz.o(x$fpl$dadd) for _dadd1
    daddsub_clz.o(x$fpl$drsb) refers to daddsub_clz.o(x$fpl$dsub) for _dsub1
    daddsub_clz.o(x$fpl$dsub) refers (Special) to usenofp.o(x$fpl$usenofp) for __I$use$fp
    daddsub_clz.o(x$fpl$dsub) refers to daddsub_clz.o(x$fpl$dadd) for _dadd1
    daddsub_clz.o(x$fpl$dsub) refers to dnaninf.o(x$fpl$dnaninf) for __fpl_dnaninf
    ddiv.o(x$fpl$drdiv) refers (Special) to usenofp.o(x$fpl$usenofp) for __I$use$fp
    ddiv.o(x$fpl$drdiv) refers to ddiv.o(x$fpl$ddiv) for ddiv_entry
    ddiv.o(x$fpl$ddiv) refers (Special) to usenofp.o(x$fpl$usenofp) for __I$use$fp
    ddiv.o(x$fpl$ddiv) refers to dretinf.o(x$fpl$dretinf) for __fpl_dretinf
    ddiv.o(x$fpl$ddiv) refers to dnaninf.o(x$fpl$dnaninf) for __fpl_dnaninf
    deqf.o(x$fpl$deqf) refers (Special) to usenofp.o(x$fpl$usenofp) for __I$use$fp
    deqf.o(x$fpl$deqf) refers to dnaninf.o(x$fpl$dnaninf) for __fpl_dnaninf
    deqf.o(x$fpl$deqf) refers to dcmpi.o(x$fpl$dcmpinf) for __fpl_dcmp_Inf
    dfix.o(x$fpl$dfix) refers (Special) to usenofp.o(x$fpl$usenofp) for __I$use$fp
    dfix.o(x$fpl$dfix) refers to dnaninf.o(x$fpl$dnaninf) for __fpl_dnaninf
    dfix.o(x$fpl$dfixr) refers (Special) to usenofp.o(x$fpl$usenofp) for __I$use$fp
    dfix.o(x$fpl$dfixr) refers to dnaninf.o(x$fpl$dnaninf) for __fpl_dnaninf
    dfixu.o(x$fpl$dfixu) refers (Special) to usenofp.o(x$fpl$usenofp) for __I$use$fp
    dfixu.o(x$fpl$dfixu) refers to dnaninf.o(x$fpl$dnaninf) for __fpl_dnaninf
    dfixu.o(x$fpl$dfixur) refers (Special) to usenofp.o(x$fpl$usenofp) for __I$use$fp
    dfixu.o(x$fpl$dfixur) refers to dnaninf.o(x$fpl$dnaninf) for __fpl_dnaninf
    dflt_clz.o(x$fpl$dfltu) refers (Special) to usenofp.o(x$fpl$usenofp) for __I$use$fp
    dflt_clz.o(x$fpl$dflt) refers (Special) to usenofp.o(x$fpl$usenofp) for __I$use$fp
    dflt_clz.o(x$fpl$dfltn) refers (Special) to usenofp.o(x$fpl$usenofp) for __I$use$fp
    dleqf.o(x$fpl$dleqf) refers (Special) to usenofp.o(x$fpl$usenofp) for __I$use$fp
    dleqf.o(x$fpl$dleqf) refers to dnaninf.o(x$fpl$dnaninf) for __fpl_dnaninf
    dleqf.o(x$fpl$dleqf) refers to dcmpi.o(x$fpl$dcmpinf) for __fpl_dcmp_Inf
    dmul.o(x$fpl$dmul) refers (Special) to usenofp.o(x$fpl$usenofp) for __I$use$fp
    dmul.o(x$fpl$dmul) refers to dretinf.o(x$fpl$dretinf) for __fpl_dretinf
    dmul.o(x$fpl$dmul) refers to dnaninf.o(x$fpl$dnaninf) for __fpl_dnaninf
    drleqf.o(x$fpl$drleqf) refers (Special) to usenofp.o(x$fpl$usenofp) for __I$use$fp
    drleqf.o(x$fpl$drleqf) refers to dleqf.o(x$fpl$dleqf) for __fpl_dcmple_InfNaN
    f2d.o(x$fpl$f2d) refers (Special) to usenofp.o(x$fpl$usenofp) for __I$use$fp
    f2d.o(x$fpl$f2d) refers to fnaninf.o(x$fpl$fnaninf) for __fpl_fnaninf
    f2d.o(x$fpl$f2d) refers to dretinf.o(x$fpl$dretinf) for __fpl_dretinf
    faddsub_clz.o(x$fpl$fadd) refers (Special) to usenofp.o(x$fpl$usenofp) for __I$use$fp
    faddsub_clz.o(x$fpl$fadd) refers to faddsub_clz.o(x$fpl$fsub) for _fsub1
    faddsub_clz.o(x$fpl$fadd) refers to fretinf.o(x$fpl$fretinf) for __fpl_fretinf
    faddsub_clz.o(x$fpl$fadd) refers to fnaninf.o(x$fpl$fnaninf) for __fpl_fnaninf
    faddsub_clz.o(x$fpl$frsb) refers (Special) to usenofp.o(x$fpl$usenofp) for __I$use$fp
    faddsub_clz.o(x$fpl$frsb) refers to faddsub_clz.o(x$fpl$fadd) for _fadd1
    faddsub_clz.o(x$fpl$frsb) refers to faddsub_clz.o(x$fpl$fsub) for _fsub1
    faddsub_clz.o(x$fpl$fsub) refers (Special) to usenofp.o(x$fpl$usenofp) for __I$use$fp
    faddsub_clz.o(x$fpl$fsub) refers to faddsub_clz.o(x$fpl$fadd) for _fadd1
    faddsub_clz.o(x$fpl$fsub) refers to fnaninf.o(x$fpl$fnaninf) for __fpl_fnaninf
    fdiv.o(x$fpl$frdiv) refers (Special) to usenofp.o(x$fpl$usenofp) for __I$use$fp
    fdiv.o(x$fpl$frdiv) refers to fdiv.o(x$fpl$fdiv) for _fdiv1
    fdiv.o(x$fpl$fdiv) refers (Special) to usenofp.o(x$fpl$usenofp) for __I$use$fp
    fdiv.o(x$fpl$fdiv) refers to fretinf.o(x$fpl$fretinf) for __fpl_fretinf
    fdiv.o(x$fpl$fdiv) refers to fnaninf.o(x$fpl$fnaninf) for __fpl_fnaninf
    feqf.o(x$fpl$feqf) refers (Special) to usenofp.o(x$fpl$usenofp) for __I$use$fp
    feqf.o(x$fpl$feqf) refers to fnaninf.o(x$fpl$fnaninf) for __fpl_fnaninf
    feqf.o(x$fpl$feqf) refers to fcmpi.o(x$fpl$fcmpinf) for __fpl_fcmp_Inf
    ffix.o(x$fpl$ffix) refers (Special) to usenofp.o(x$fpl$usenofp) for __I$use$fp
    ffix.o(x$fpl$ffix) refers to fnaninf.o(x$fpl$fnaninf) for __fpl_fnaninf
    ffix.o(x$fpl$ffixr) refers (Special) to usenofp.o(x$fpl$usenofp) for __I$use$fp
    ffix.o(x$fpl$ffixr) refers to fnaninf.o(x$fpl$fnaninf) for __fpl_fnaninf
    ffixu.o(x$fpl$ffixu) refers (Special) to usenofp.o(x$fpl$usenofp) for __I$use$fp
    ffixu.o(x$fpl$ffixu) refers to fnaninf.o(x$fpl$fnaninf) for __fpl_fnaninf
    ffixu.o(x$fpl$ffixur) refers (Special) to usenofp.o(x$fpl$usenofp) for __I$use$fp
    ffixu.o(x$fpl$ffixur) refers to fnaninf.o(x$fpl$fnaninf) for __fpl_fnaninf
    fflt_clz.o(x$fpl$ffltu) refers (Special) to usenofp.o(x$fpl$usenofp) for __I$use$fp
    fflt_clz.o(x$fpl$fflt) refers (Special) to usenofp.o(x$fpl$usenofp) for __I$use$fp
    fflt_clz.o(x$fpl$ffltn) refers (Special) to usenofp.o(x$fpl$usenofp) for __I$use$fp
    fleqf.o(x$fpl$fleqf) refers (Special) to usenofp.o(x$fpl$usenofp) for __I$use$fp
    fleqf.o(x$fpl$fleqf) refers to fnaninf.o(x$fpl$fnaninf) for __fpl_fnaninf
    fleqf.o(x$fpl$fleqf) refers to fcmpi.o(x$fpl$fcmpinf) for __fpl_fcmp_Inf
    fmul.o(x$fpl$fmul) refers (Special) to usenofp.o(x$fpl$usenofp) for __I$use$fp
    fmul.o(x$fpl$fmul) refers to fretinf.o(x$fpl$fretinf) for __fpl_fretinf
    fmul.o(x$fpl$fmul) refers to fnaninf.o(x$fpl$fnaninf) for __fpl_fnaninf
    frleqf.o(x$fpl$frleqf) refers (Special) to usenofp.o(x$fpl$usenofp) for __I$use$fp
    frleqf.o(x$fpl$frleqf) refers to fleqf.o(x$fpl$fleqf) for __fpl_fcmple_InfNaN
    printf1.o(x$fpl$printf1) refers to _printf_fp_dec.o(.text) for _printf_fp_dec_real
    atof.o(i.__softfp_atof) refers (Special) to usenofp.o(x$fpl$usenofp) for __I$use$fp
    atof.o(i.__softfp_atof) refers to _rserrno.o(.text) for __read_errno
    atof.o(i.__softfp_atof) refers to strtod.o(.text) for __strtod_int
    atof.o(i.atof) refers (Special) to usenofp.o(x$fpl$usenofp) for __I$use$fp
    atof.o(i.atof) refers to _rserrno.o(.text) for __read_errno
    atof.o(i.atof) refers to strtod.o(.text) for __strtod_int
    sin.o(i.__softfp_sin) refers (Special) to usenofp.o(x$fpl$usenofp) for __I$use$fp
    sin.o(i.__softfp_sin) refers to sin.o(i.sin) for sin
    sin.o(i.sin) refers (Special) to usenofp.o(x$fpl$usenofp) for __I$use$fp
    sin.o(i.sin) refers to _rserrno.o(.text) for __set_errno
    sin.o(i.sin) refers to dunder.o(i.__mathlib_dbl_invalid) for __mathlib_dbl_invalid
    sin.o(i.sin) refers to dunder.o(i.__mathlib_dbl_infnan) for __mathlib_dbl_infnan
    sin.o(i.sin) refers to rred.o(i.__ieee754_rem_pio2) for __ieee754_rem_pio2
    sin.o(i.sin) refers to cos_i.o(i.__kernel_cos) for __kernel_cos
    sin.o(i.sin) refers to sin_i.o(i.__kernel_sin) for __kernel_sin
    sin_x.o(i.____softfp_sin$lsc) refers (Special) to usenofp.o(x$fpl$usenofp) for __I$use$fp
    sin_x.o(i.____softfp_sin$lsc) refers to sin_x.o(i.__sin$lsc) for __sin$lsc
    sin_x.o(i.__sin$lsc) refers (Special) to usenofp.o(x$fpl$usenofp) for __I$use$fp
    sin_x.o(i.__sin$lsc) refers to _rserrno.o(.text) for __set_errno
    sin_x.o(i.__sin$lsc) refers to dunder.o(i.__mathlib_dbl_infnan) for __mathlib_dbl_infnan
    sin_x.o(i.__sin$lsc) refers to rred.o(i.__ieee754_rem_pio2) for __ieee754_rem_pio2
    sin_x.o(i.__sin$lsc) refers to cos_i.o(i.__kernel_cos) for __kernel_cos
    sin_x.o(i.__sin$lsc) refers to sin_i.o(i.__kernel_sin) for __kernel_sin
    sqrt.o(i.__softfp_sqrt) refers (Special) to usenofp.o(x$fpl$usenofp) for __I$use$fp
    sqrt.o(i.__softfp_sqrt) refers to dsqrt_umaal.o(x$fpl$dsqrt) for _dsqrt
    sqrt.o(i.__softfp_sqrt) refers to _rserrno.o(.text) for __set_errno
    sqrt.o(i.sqrt) refers (Special) to usenofp.o(x$fpl$usenofp) for __I$use$fp
    sqrt.o(i.sqrt) refers to dsqrt_umaal.o(x$fpl$dsqrt) for _dsqrt
    sqrt.o(i.sqrt) refers to _rserrno.o(.text) for __set_errno
    sqrt_x.o(i.____softfp_sqrt$lsc) refers (Special) to usenofp.o(x$fpl$usenofp) for __I$use$fp
    sqrt_x.o(i.____softfp_sqrt$lsc) refers to dleqf.o(x$fpl$dleqf) for __aeabi_cdcmple
    sqrt_x.o(i.____softfp_sqrt$lsc) refers to _rserrno.o(.text) for __set_errno
    sqrt_x.o(i.____softfp_sqrt$lsc) refers to dsqrt_umaal.o(x$fpl$dsqrt) for _dsqrt
    sqrt_x.o(i.__sqrt$lsc) refers (Special) to usenofp.o(x$fpl$usenofp) for __I$use$fp
    sqrt_x.o(i.__sqrt$lsc) refers to dleqf.o(x$fpl$dleqf) for __aeabi_cdcmple
    sqrt_x.o(i.__sqrt$lsc) refers to _rserrno.o(.text) for __set_errno
    sqrt_x.o(i.__sqrt$lsc) refers to dsqrt_umaal.o(x$fpl$dsqrt) for _dsqrt
    __rtentry.o(.ARM.Collect$$rtentry$$00000000) refers (Special) to __rtentry2.o(.ARM.Collect$$rtentry$$0000000A) for __rt_entry_li
    __rtentry.o(.ARM.Collect$$rtentry$$00000000) refers (Special) to __rtentry2.o(.ARM.Collect$$rtentry$$0000000D) for __rt_entry_main
    __rtentry.o(.ARM.Collect$$rtentry$$00000000) refers (Special) to __rtentry2.o(.ARM.Collect$$rtentry$$0000000C) for __rt_entry_postli_1
    __rtentry.o(.ARM.Collect$$rtentry$$00000000) refers (Special) to __rtentry2.o(.ARM.Collect$$rtentry$$00000009) for __rt_entry_postsh_1
    __rtentry.o(.ARM.Collect$$rtentry$$00000000) refers (Special) to __rtentry2.o(.ARM.Collect$$rtentry$$00000002) for __rt_entry_presh_1
    __rtentry.o(.ARM.Collect$$rtentry$$00000000) refers (Special) to __rtentry4.o(.ARM.Collect$$rtentry$$00000004) for __rt_entry_sh
    aeabi_ldiv0_sigfpe.o(.text) refers to rt_div0.o(.text) for __rt_div0
    rt_heap_descriptor.o(.text) refers to rt_heap_descriptor.o(.bss) for __rt_heap_descriptor_data
    rt_heap_descriptor_intlibspace.o(.text) refers to libspace.o(.bss) for __libspace_start
    rt_locale.o(.text) refers to rt_locale.o(.bss) for __rt_locale_data
    rt_locale_intlibspace.o(.text) refers to libspace.o(.bss) for __libspace_start
    rt_errno_addr.o(.text) refers to rt_errno_addr.o(.bss) for __aeabi_errno_addr_data
    rt_errno_addr_intlibspace.o(.text) refers to libspace.o(.bss) for __libspace_start
    init_alloc.o(.text) refers (Special) to hguard.o(.text) for __heap$guard
    init_alloc.o(.text) refers (Special) to libinit2.o(.ARM.Collect$$libinit$$00000005) for __rt_lib_init_heap_2
    init_alloc.o(.text) refers (Special) to maybetermalloc1.o(.emb_text) for _maybe_terminate_alloc
    init_alloc.o(.text) refers to h1_extend.o(.text) for __Heap_ProvideMemory
    init_alloc.o(.text) refers to defsig_rtmem_outer.o(.text) for __rt_SIGRTMEM
    init_alloc.o(.text) refers to rt_heap_descriptor_intlibspace.o(.text) for __rt_heap_descriptor
    init_alloc.o(.text) refers to h1_init.o(.text) for __Heap_Initialize
    h1_init_mt.o(.text) refers to mutex_dummy.o(.text) for _mutex_initialize
    _rserrno.o(.text) refers to rt_errno_addr_intlibspace.o(.text) for __aeabi_errno_addr
    _printf_intcommon.o(.text) refers (Weak) to _printf_pad.o(.text) for _printf_pre_padding
    _printf_intcommon.o(.text) refers (Weak) to _printf_pad.o(.text) for _printf_pre_padding
    _printf_intcommon.o(.text) refers (Weak) to _printf_pad.o(.text) for _printf_post_padding
    _printf_fp_dec.o(.text) refers (Special) to usenofp.o(x$fpl$usenofp) for __I$use$fp
    _printf_fp_dec.o(.text) refers (Special) to lc_numeric_c.o(locale$$code) for _get_lc_numeric
    _printf_fp_dec.o(.text) refers to bigflt0.o(.text) for _btod_etento
    _printf_fp_dec.o(.text) refers to btod.o(CL$$btod_d2e) for _btod_d2e
    _printf_fp_dec.o(.text) refers to btod.o(CL$$btod_ediv) for _btod_ediv
    _printf_fp_dec.o(.text) refers to btod.o(CL$$btod_emul) for _btod_emul
    _printf_fp_dec.o(.text) refers to lludiv10.o(.text) for _ll_udiv10
    _printf_fp_dec.o(.text) refers to fpclassify.o(i.__ARM_fpclassify) for __ARM_fpclassify
    _printf_fp_dec.o(.text) refers to _printf_fp_infnan.o(.text) for _printf_fp_infnan
    _printf_fp_dec.o(.text) refers (Weak) to _printf_pad.o(.text) for _printf_pre_padding
    _printf_fp_dec.o(.text) refers (Weak) to _printf_pad.o(.text) for _printf_pre_padding
    _printf_fp_dec.o(.text) refers to rt_locale_intlibspace.o(.text) for __rt_locale
    _printf_fp_dec.o(.text) refers (Weak) to _printf_pad.o(.text) for _printf_post_padding
    _printf_char_common.o(.text) refers to __printf_flags_ss_wp.o(.text) for __printf
    _printf_char.o(.text) refers (Weak) to _printf_str.o(.text) for _printf_str
    strtod.o(.text) refers (Special) to lc_numeric_c.o(locale$$code) for _get_lc_numeric
    strtod.o(.text) refers to scanf1.o(x$fpl$scanf1) for _scanf_real
    strtod.o(.text) refers to _sgetc.o(.text) for _sgetc
    strtod.o(.text) refers to isspace.o(.text) for isspace
    strtol.o(.text) refers to rt_ctype_table.o(.text) for __rt_ctype_table
    strtol.o(.text) refers to _strtoul.o(.text) for _strtoul
    strtol.o(.text) refers to rt_errno_addr_intlibspace.o(.text) for __aeabi_errno_addr
    lc_ctype_c.o(locale$$data) refers (Special) to libinit2.o(.ARM.Collect$$libinit$$00000012) for __rt_lib_init_lc_ctype_2
    lc_ctype_c.o(locale$$code) refers (Special) to libinit2.o(.ARM.Collect$$libinit$$00000012) for __rt_lib_init_lc_ctype_2
    lc_ctype_c.o(locale$$code) refers to strcmpv7m.o(.text) for strcmp
    lc_ctype_c.o(locale$$code) refers to lc_ctype_c.o(locale$$data) for __lcctype_c_name
    _get_argv.o(.text) refers (Special) to hrguard.o(.text) for __heap_region$guard
    _get_argv.o(.text) refers to h1_alloc.o(.text) for malloc
    _get_argv.o(.text) refers to defsig_rtmem_outer.o(.text) for __rt_SIGRTMEM
    _get_argv.o(.text) refers to sys_command.o(.text) for _sys_command_string
    libinit2.o(.ARM.Collect$$libinit$$00000005) refers (Weak) to init_alloc.o(.text) for _init_alloc
    libinit2.o(.ARM.Collect$$libinit$$0000000F) refers (Weak) to rt_locale_intlibspace.o(.text) for __rt_locale
    libinit2.o(.ARM.Collect$$libinit$$00000010) refers to libinit2.o(.ARM.Collect$$libinit$$0000000F) for .ARM.Collect$$libinit$$0000000F
    libinit2.o(.ARM.Collect$$libinit$$00000012) refers to libinit2.o(.ARM.Collect$$libinit$$0000000F) for .ARM.Collect$$libinit$$0000000F
    libinit2.o(.ARM.Collect$$libinit$$00000012) refers (Weak) to lc_ctype_c.o(locale$$code) for _get_lc_ctype
    libinit2.o(.ARM.Collect$$libinit$$00000014) refers to libinit2.o(.ARM.Collect$$libinit$$0000000F) for .ARM.Collect$$libinit$$0000000F
    libinit2.o(.ARM.Collect$$libinit$$00000016) refers to libinit2.o(.ARM.Collect$$libinit$$0000000F) for .ARM.Collect$$libinit$$0000000F
    libinit2.o(.ARM.Collect$$libinit$$00000016) refers (Weak) to lc_numeric_c.o(locale$$code) for _get_lc_numeric
    libinit2.o(.ARM.Collect$$libinit$$00000018) refers to libinit2.o(.ARM.Collect$$libinit$$0000000F) for .ARM.Collect$$libinit$$0000000F
    libinit2.o(.ARM.Collect$$libinit$$00000026) refers to argv_veneer.o(.emb_text) for __ARM_argv_veneer
    libinit2.o(.ARM.Collect$$libinit$$00000027) refers to argv_veneer.o(.emb_text) for __ARM_argv_veneer
    dcmpi.o(x$fpl$dcmpinf) refers (Special) to usenofp.o(x$fpl$usenofp) for __I$use$fp
    dnaninf.o(x$fpl$dnaninf) refers (Special) to usenofp.o(x$fpl$usenofp) for __I$use$fp
    dretinf.o(x$fpl$dretinf) refers (Special) to usenofp.o(x$fpl$usenofp) for __I$use$fp
    dsqrt_umaal.o(x$fpl$dsqrt) refers (Special) to usenofp.o(x$fpl$usenofp) for __I$use$fp
    dsqrt_umaal.o(x$fpl$dsqrt) refers to dnaninf.o(x$fpl$dnaninf) for __fpl_dnaninf
    fcmpi.o(x$fpl$fcmpinf) refers (Special) to usenofp.o(x$fpl$usenofp) for __I$use$fp
    fnaninf.o(x$fpl$fnaninf) refers (Special) to usenofp.o(x$fpl$usenofp) for __I$use$fp
    fretinf.o(x$fpl$fretinf) refers (Special) to usenofp.o(x$fpl$usenofp) for __I$use$fp
    cos_i.o(i.__kernel_cos) refers (Special) to usenofp.o(x$fpl$usenofp) for __I$use$fp
    cos_i.o(i.__kernel_cos) refers to dfix.o(x$fpl$dfix) for __aeabi_d2iz
    cos_i.o(i.__kernel_cos) refers to dmul.o(x$fpl$dmul) for __aeabi_dmul
    cos_i.o(i.__kernel_cos) refers to poly.o(i.__kernel_poly) for __kernel_poly
    cos_i.o(i.__kernel_cos) refers to daddsub_clz.o(x$fpl$dsub) for __aeabi_dsub
    cos_i.o(i.__kernel_cos) refers to scalbn.o(x$fpl$scalbn) for __ARM_scalbn
    cos_i.o(i.__kernel_cos) refers to daddsub_clz.o(x$fpl$drsb) for __aeabi_drsub
    cos_i.o(i.__kernel_cos) refers to cos_i.o(.constdata) for .constdata
    cos_i.o(.constdata) refers (Special) to usenofp.o(x$fpl$usenofp) for __I$use$fp
    dunder.o(i.__mathlib_dbl_divzero) refers to ddiv.o(x$fpl$ddiv) for __aeabi_ddiv
    dunder.o(i.__mathlib_dbl_infnan) refers to scalbn.o(x$fpl$scalbn) for __ARM_scalbn
    dunder.o(i.__mathlib_dbl_infnan2) refers to daddsub_clz.o(x$fpl$dadd) for __aeabi_dadd
    dunder.o(i.__mathlib_dbl_invalid) refers to ddiv.o(x$fpl$ddiv) for __aeabi_ddiv
    dunder.o(i.__mathlib_dbl_overflow) refers to scalbn.o(x$fpl$scalbn) for __ARM_scalbn
    dunder.o(i.__mathlib_dbl_posinfnan) refers to dmul.o(x$fpl$dmul) for __aeabi_dmul
    dunder.o(i.__mathlib_dbl_underflow) refers to scalbn.o(x$fpl$scalbn) for __ARM_scalbn
    rred.o(i.__ieee754_rem_pio2) refers (Special) to usenofp.o(x$fpl$usenofp) for __I$use$fp
    rred.o(i.__ieee754_rem_pio2) refers to daddsub_clz.o(x$fpl$dsub) for __aeabi_dsub
    rred.o(i.__ieee754_rem_pio2) refers to daddsub_clz.o(x$fpl$dadd) for __aeabi_dadd
    rred.o(i.__ieee754_rem_pio2) refers to dmul.o(x$fpl$dmul) for __aeabi_dmul
    rred.o(i.__ieee754_rem_pio2) refers to dfix.o(x$fpl$dfix) for __aeabi_d2iz
    rred.o(i.__ieee754_rem_pio2) refers to dflt_clz.o(x$fpl$dflt) for __aeabi_i2d
    rred.o(i.__ieee754_rem_pio2) refers to daddsub_clz.o(x$fpl$drsb) for __aeabi_drsub
    rred.o(i.__ieee754_rem_pio2) refers to dflt_clz.o(x$fpl$dfltu) for __aeabi_ui2d
    rred.o(i.__ieee754_rem_pio2) refers to scalbn.o(x$fpl$scalbn) for __ARM_scalbn
    rred.o(i.__ieee754_rem_pio2) refers to rred.o(.constdata) for .constdata
    rred.o(i.__use_accurate_range_reduction) refers (Special) to usenofp.o(x$fpl$usenofp) for __I$use$fp
    rred.o(.constdata) refers (Special) to usenofp.o(x$fpl$usenofp) for __I$use$fp
    sin_i.o(i.__kernel_sin) refers (Special) to usenofp.o(x$fpl$usenofp) for __I$use$fp
    sin_i.o(i.__kernel_sin) refers to fpclassify.o(i.__ARM_fpclassify) for __ARM_fpclassify
    sin_i.o(i.__kernel_sin) refers to dunder.o(i.__mathlib_dbl_underflow) for __mathlib_dbl_underflow
    sin_i.o(i.__kernel_sin) refers to dmul.o(x$fpl$dmul) for __aeabi_dmul
    sin_i.o(i.__kernel_sin) refers to poly.o(i.__kernel_poly) for __kernel_poly
    sin_i.o(i.__kernel_sin) refers to scalbn.o(x$fpl$scalbn) for __ARM_scalbn
    sin_i.o(i.__kernel_sin) refers to daddsub_clz.o(x$fpl$dsub) for __aeabi_dsub
    sin_i.o(i.__kernel_sin) refers to daddsub_clz.o(x$fpl$drsb) for __aeabi_drsub
    sin_i.o(i.__kernel_sin) refers to daddsub_clz.o(x$fpl$dadd) for __aeabi_dadd
    sin_i.o(i.__kernel_sin) refers to sin_i.o(.constdata) for .constdata
    sin_i.o(.constdata) refers (Special) to usenofp.o(x$fpl$usenofp) for __I$use$fp
    sin_i_x.o(i.____kernel_sin$lsc) refers (Special) to usenofp.o(x$fpl$usenofp) for __I$use$fp
    sin_i_x.o(i.____kernel_sin$lsc) refers to dmul.o(x$fpl$dmul) for __aeabi_dmul
    sin_i_x.o(i.____kernel_sin$lsc) refers to poly.o(i.__kernel_poly) for __kernel_poly
    sin_i_x.o(i.____kernel_sin$lsc) refers to scalbn.o(x$fpl$scalbn) for __ARM_scalbn
    sin_i_x.o(i.____kernel_sin$lsc) refers to daddsub_clz.o(x$fpl$dsub) for __aeabi_dsub
    sin_i_x.o(i.____kernel_sin$lsc) refers to daddsub_clz.o(x$fpl$drsb) for __aeabi_drsub
    sin_i_x.o(i.____kernel_sin$lsc) refers to daddsub_clz.o(x$fpl$dadd) for __aeabi_dadd
    sin_i_x.o(i.____kernel_sin$lsc) refers to sin_i_x.o(.constdata) for .constdata
    sin_i_x.o(.constdata) refers (Special) to usenofp.o(x$fpl$usenofp) for __I$use$fp
    sys_command.o(.text) refers (Special) to use_no_semi.o(.text) for __I$use$semihosting
    sys_command.o(.text) refers (Special) to indicate_semi.o(.text) for __semihosting_library_function
    libspace.o(.text) refers to libspace.o(.bss) for __libspace_start
    __rtentry2.o(.ARM.Collect$$rtentry$$00000008) refers to boardinit2.o(.text) for _platform_post_stackheap_init
    __rtentry2.o(.ARM.Collect$$rtentry$$0000000A) refers to libinit.o(.ARM.Collect$$libinit$$00000000) for __rt_lib_init
    __rtentry2.o(.ARM.Collect$$rtentry$$0000000B) refers to boardinit3.o(.text) for _platform_post_lib_init
    __rtentry2.o(.ARM.Collect$$rtentry$$0000000D) refers to main.o(.text) for main
    __rtentry2.o(.ARM.Collect$$rtentry$$0000000D) refers to exit.o(.text) for exit
    __rtentry2.o(.ARM.exidx) refers to __rtentry2.o(.ARM.Collect$$rtentry$$00000001) for .ARM.Collect$$rtentry$$00000001
    __rtentry2.o(.ARM.exidx) refers to __rtentry2.o(.ARM.Collect$$rtentry$$00000008) for .ARM.Collect$$rtentry$$00000008
    __rtentry2.o(.ARM.exidx) refers to __rtentry2.o(.ARM.Collect$$rtentry$$0000000A) for .ARM.Collect$$rtentry$$0000000A
    __rtentry2.o(.ARM.exidx) refers to __rtentry2.o(.ARM.Collect$$rtentry$$0000000B) for .ARM.Collect$$rtentry$$0000000B
    __rtentry2.o(.ARM.exidx) refers to __rtentry2.o(.ARM.Collect$$rtentry$$0000000D) for .ARM.Collect$$rtentry$$0000000D
    __rtentry4.o(.ARM.Collect$$rtentry$$00000004) refers to sys_stackheap_outer.o(.text) for __user_setup_stackheap
    __rtentry4.o(.ARM.exidx) refers to __rtentry4.o(.ARM.Collect$$rtentry$$00000004) for .ARM.Collect$$rtentry$$00000004
    rt_div0.o(.text) refers to defsig_fpe_outer.o(.text) for __rt_SIGFPE
    maybetermalloc2.o(.emb_text) refers (Special) to term_alloc.o(.text) for _terminate_alloc
    h1_extend.o(.text) refers to h1_free.o(.text) for free
    h1_extend_mt.o(.text) refers to h1_free_mt.o(.text) for _free_internal
    isspace.o(.text) refers to rt_ctype_table.o(.text) for __rt_ctype_table
    _printf_fp_infnan.o(.text) refers (Weak) to _printf_pad.o(.text) for _printf_pre_padding
    _printf_fp_infnan.o(.text) refers (Weak) to _printf_pad.o(.text) for _printf_post_padding
    _strtoul.o(.text) refers to _chval.o(.text) for _chval
    _strtoul.o(.text) refers to rt_errno_addr_intlibspace.o(.text) for __aeabi_errno_addr
    bigflt0.o(.text) refers (Special) to usenofp.o(x$fpl$usenofp) for __I$use$fp
    bigflt0.o(.text) refers to btod.o(CL$$btod_emul) for _btod_emul
    bigflt0.o(.text) refers to btod.o(CL$$btod_ediv) for _btod_ediv
    bigflt0.o(.text) refers to bigflt0.o(.constdata) for .constdata
    bigflt0.o(.constdata) refers (Special) to usenofp.o(x$fpl$usenofp) for __I$use$fp
    btod.o(CL$$btod_d2e) refers (Special) to usenofp.o(x$fpl$usenofp) for __I$use$fp
    btod.o(CL$$btod_d2e) refers to btod.o(CL$$btod_d2e_norm_op1) for _d2e_norm_op1
    btod.o(CL$$btod_d2e_norm_op1) refers (Special) to usenofp.o(x$fpl$usenofp) for __I$use$fp
    btod.o(CL$$btod_d2e_norm_op1) refers to btod.o(CL$$btod_d2e_denorm_low) for _d2e_denorm_low
    btod.o(CL$$btod_d2e_denorm_low) refers (Special) to usenofp.o(x$fpl$usenofp) for __I$use$fp
    btod.o(CL$$btod_emul) refers (Special) to usenofp.o(x$fpl$usenofp) for __I$use$fp
    btod.o(CL$$btod_emul) refers to btod.o(CL$$btod_mult_common) for __btod_mult_common
    btod.o(CL$$btod_emul) refers to btod.o(CL$$btod_e2e) for _e2e
    btod.o(CL$$btod_ediv) refers (Special) to usenofp.o(x$fpl$usenofp) for __I$use$fp
    btod.o(CL$$btod_ediv) refers to btod.o(CL$$btod_div_common) for __btod_div_common
    btod.o(CL$$btod_ediv) refers to btod.o(CL$$btod_e2e) for _e2e
    btod.o(CL$$btod_emuld) refers (Special) to usenofp.o(x$fpl$usenofp) for __I$use$fp
    btod.o(CL$$btod_emuld) refers to btod.o(CL$$btod_mult_common) for __btod_mult_common
    btod.o(CL$$btod_emuld) refers to btod.o(CL$$btod_e2d) for _e2d
    btod.o(CL$$btod_edivd) refers (Special) to usenofp.o(x$fpl$usenofp) for __I$use$fp
    btod.o(CL$$btod_edivd) refers to btod.o(CL$$btod_div_common) for __btod_div_common
    btod.o(CL$$btod_edivd) refers to btod.o(CL$$btod_e2d) for _e2d
    btod.o(CL$$btod_e2e) refers (Special) to usenofp.o(x$fpl$usenofp) for __I$use$fp
    btod.o(CL$$btod_e2d) refers (Special) to usenofp.o(x$fpl$usenofp) for __I$use$fp
    btod.o(CL$$btod_e2d) refers to btod.o(CL$$btod_e2e) for _e2e
    btod.o(CL$$btod_mult_common) refers (Special) to usenofp.o(x$fpl$usenofp) for __I$use$fp
    btod.o(CL$$btod_div_common) refers (Special) to usenofp.o(x$fpl$usenofp) for __I$use$fp
    lc_numeric_c.o(locale$$data) refers (Special) to libinit2.o(.ARM.Collect$$libinit$$00000016) for __rt_lib_init_lc_numeric_2
    lc_numeric_c.o(locale$$code) refers (Special) to libinit2.o(.ARM.Collect$$libinit$$00000016) for __rt_lib_init_lc_numeric_2
    lc_numeric_c.o(locale$$code) refers to strcmpv7m.o(.text) for strcmp
    lc_numeric_c.o(locale$$code) refers to lc_numeric_c.o(locale$$data) for __lcnum_c_name
    defsig_rtmem_outer.o(.text) refers to defsig_rtmem_inner.o(.text) for __rt_SIGRTMEM_inner
    defsig_rtmem_outer.o(.text) refers to defsig_exit.o(.text) for __sig_exit
    defsig_rtmem_formal.o(.text) refers to rt_raise.o(.text) for __rt_raise
    heapauxa.o(.text) refers to heapauxa.o(.data) for .data
    argv_veneer.o(.emb_text) refers to no_argv.o(.text) for __ARM_get_argv
    istatus.o(x$fpl$ieeestatus) refers (Special) to usenofp.o(x$fpl$usenofp) for __I$use$fp
    scalbn.o(x$fpl$scalbn) refers (Special) to usenofp.o(x$fpl$usenofp) for __I$use$fp
    scalbn.o(x$fpl$scalbn) refers to dcheck1.o(x$fpl$dcheck1) for __fpl_dcheck_NaN1
    scanf1.o(x$fpl$scanf1) refers to scanf_fp.o(.text) for _scanf_really_real
    fpclassify.o(i.__ARM_fpclassify) refers (Special) to usenofp.o(x$fpl$usenofp) for __I$use$fp
    poly.o(i.__kernel_poly) refers (Special) to usenofp.o(x$fpl$usenofp) for __I$use$fp
    poly.o(i.__kernel_poly) refers to dmul.o(x$fpl$dmul) for __aeabi_dmul
    poly.o(i.__kernel_poly) refers to daddsub_clz.o(x$fpl$dadd) for __aeabi_dadd
    sys_stackheap_outer.o(.text) refers to libspace.o(.text) for __user_perproc_libspace
    sys_stackheap_outer.o(.text) refers to startup_stm32f40_41xxx.o(.text) for __user_initial_stackheap
    rt_raise.o(.text) refers to __raise.o(.text) for __raise
    rt_raise.o(.text) refers to sys_exit.o(.text) for _sys_exit
    term_alloc.o(.text) refers (Special) to libshutdown2.o(.ARM.Collect$$libshutdown$$0000000E) for __rt_lib_shutdown_heap_2
    term_alloc.o(.text) refers to rt_heap_descriptor_intlibspace.o(.text) for __rt_heap_descriptor
    term_alloc.o(.text) refers to h1_final.o(.text) for __Heap_Finalize
    scanf_fp.o(.text) refers (Special) to usenofp.o(x$fpl$usenofp) for __I$use$fp
    scanf_fp.o(.text) refers (Special) to lc_numeric_c.o(locale$$code) for _get_lc_numeric
    scanf_fp.o(.text) refers to rt_errno_addr_intlibspace.o(.text) for __aeabi_errno_addr
    scanf_fp.o(.text) refers to istatus.o(x$fpl$ieeestatus) for __ieee_status
    scanf_fp.o(.text) refers to bigflt0.o(.text) for _btod_etento
    scanf_fp.o(.text) refers to btod.o(CL$$btod_emuld) for _btod_emuld
    scanf_fp.o(.text) refers to btod.o(CL$$btod_edivd) for _btod_edivd
    scanf_fp.o(.text) refers to rt_locale_intlibspace.o(.text) for __rt_locale
    scanf_fp.o(.text) refers to scanf2.o(x$fpl$scanf2) for _scanf_infnan
    scanf_fp.o(.text) refers to __printf_wp.o(i._is_digit) for _is_digit
    scanf_fp.o(.text) refers to fpconst.o(c$$dmax) for __dbl_max
    scanf_fp.o(.text) refers to fpconst.o(c$$dinf) for __huge_val
    scanf_fp.o(.text) refers to narrow.o(i.__mathlib_narrow) for __mathlib_narrow
    exit.o(.text) refers to rtexit.o(.ARM.Collect$$rtexit$$00000000) for __rt_exit
    defsig_exit.o(.text) refers to sys_exit.o(.text) for _sys_exit
    defsig_fpe_outer.o(.text) refers to defsig_fpe_inner.o(.text) for __rt_SIGFPE_inner
    defsig_fpe_outer.o(.text) refers to defsig_exit.o(.text) for __sig_exit
    defsig_fpe_formal.o(.text) refers to rt_raise.o(.text) for __rt_raise
    defsig_rtmem_inner.o(.text) refers to defsig_general.o(.text) for __default_signal_display
    _get_argv_nomalloc.o(.text) refers (Special) to hrguard.o(.text) for __heap_region$guard
    _get_argv_nomalloc.o(.text) refers to defsig_rtmem_outer.o(.text) for __rt_SIGRTMEM
    _get_argv_nomalloc.o(.text) refers to sys_command.o(.text) for _sys_command_string
    libinit.o(.ARM.Collect$$libinit$$00000000) refers (Special) to libinit2.o(.ARM.Collect$$libinit$$0000002E) for __rt_lib_init_alloca_1
    libinit.o(.ARM.Collect$$libinit$$00000000) refers (Special) to libinit2.o(.ARM.Collect$$libinit$$0000002C) for __rt_lib_init_argv_1
    libinit.o(.ARM.Collect$$libinit$$00000000) refers (Special) to libinit2.o(.ARM.Collect$$libinit$$0000001B) for __rt_lib_init_atexit_1
    libinit.o(.ARM.Collect$$libinit$$00000000) refers (Special) to libinit2.o(.ARM.Collect$$libinit$$00000021) for __rt_lib_init_clock_1
    libinit.o(.ARM.Collect$$libinit$$00000000) refers (Special) to libinit2.o(.ARM.Collect$$libinit$$00000032) for __rt_lib_init_cpp_1
    libinit.o(.ARM.Collect$$libinit$$00000000) refers (Special) to libinit2.o(.ARM.Collect$$libinit$$00000030) for __rt_lib_init_exceptions_1
    libinit.o(.ARM.Collect$$libinit$$00000000) refers (Special) to libinit2.o(.ARM.Collect$$libinit$$00000002) for __rt_lib_init_fp_1
    libinit.o(.ARM.Collect$$libinit$$00000000) refers (Special) to libinit2.o(.ARM.Collect$$libinit$$0000001F) for __rt_lib_init_fp_trap_1
    libinit.o(.ARM.Collect$$libinit$$00000000) refers (Special) to libinit2.o(.ARM.Collect$$libinit$$00000023) for __rt_lib_init_getenv_1
    libinit.o(.ARM.Collect$$libinit$$00000000) refers (Special) to libinit2.o(.ARM.Collect$$libinit$$0000000A) for __rt_lib_init_heap_1
    libinit.o(.ARM.Collect$$libinit$$00000000) refers (Special) to libinit2.o(.ARM.Collect$$libinit$$00000011) for __rt_lib_init_lc_collate_1
    libinit.o(.ARM.Collect$$libinit$$00000000) refers (Special) to libinit2.o(.ARM.Collect$$libinit$$00000013) for __rt_lib_init_lc_ctype_1
    libinit.o(.ARM.Collect$$libinit$$00000000) refers (Special) to libinit2.o(.ARM.Collect$$libinit$$00000015) for __rt_lib_init_lc_monetary_1
    libinit.o(.ARM.Collect$$libinit$$00000000) refers (Special) to libinit2.o(.ARM.Collect$$libinit$$00000017) for __rt_lib_init_lc_numeric_1
    libinit.o(.ARM.Collect$$libinit$$00000000) refers (Special) to libinit2.o(.ARM.Collect$$libinit$$00000019) for __rt_lib_init_lc_time_1
    libinit.o(.ARM.Collect$$libinit$$00000000) refers (Special) to libinit2.o(.ARM.Collect$$libinit$$00000004) for __rt_lib_init_preinit_1
    libinit.o(.ARM.Collect$$libinit$$00000000) refers (Special) to libinit2.o(.ARM.Collect$$libinit$$0000000E) for __rt_lib_init_rand_1
    libinit.o(.ARM.Collect$$libinit$$00000000) refers (Special) to libinit2.o(.ARM.Collect$$libinit$$00000033) for __rt_lib_init_return
    libinit.o(.ARM.Collect$$libinit$$00000000) refers (Special) to libinit2.o(.ARM.Collect$$libinit$$0000001D) for __rt_lib_init_signal_1
    libinit.o(.ARM.Collect$$libinit$$00000000) refers (Special) to libinit2.o(.ARM.Collect$$libinit$$00000025) for __rt_lib_init_stdio_1
    libinit.o(.ARM.Collect$$libinit$$00000000) refers (Special) to libinit2.o(.ARM.Collect$$libinit$$0000000C) for __rt_lib_init_user_alloc_1
    dcheck1.o(x$fpl$dcheck1) refers (Special) to usenofp.o(x$fpl$usenofp) for __I$use$fp
    dcheck1.o(x$fpl$dcheck1) refers to retnan.o(x$fpl$retnan) for __fpl_return_NaN
    sys_exit.o(.text) refers (Special) to use_no_semi.o(.text) for __I$use$semihosting
    sys_exit.o(.text) refers (Special) to indicate_semi.o(.text) for __semihosting_library_function
    rtexit.o(.ARM.Collect$$rtexit$$00000000) refers (Special) to rtexit2.o(.ARM.Collect$$rtexit$$00000004) for __rt_exit_exit
    rtexit.o(.ARM.Collect$$rtexit$$00000000) refers (Special) to rtexit2.o(.ARM.Collect$$rtexit$$00000003) for __rt_exit_ls
    rtexit.o(.ARM.Collect$$rtexit$$00000000) refers (Special) to rtexit2.o(.ARM.Collect$$rtexit$$00000002) for __rt_exit_prels_1
    rtexit.o(.ARM.exidx) refers (Special) to rtexit2.o(.ARM.Collect$$rtexit$$00000004) for __rt_exit_exit
    rtexit.o(.ARM.exidx) refers (Special) to rtexit2.o(.ARM.Collect$$rtexit$$00000003) for __rt_exit_ls
    rtexit.o(.ARM.exidx) refers (Special) to rtexit2.o(.ARM.Collect$$rtexit$$00000002) for __rt_exit_prels_1
    rtexit.o(.ARM.exidx) refers to rtexit.o(.ARM.Collect$$rtexit$$00000000) for .ARM.Collect$$rtexit$$00000000
    __raise.o(.text) refers to defsig.o(CL$$defsig) for __default_signal_handler
    defsig_general.o(.text) refers to sys_wrch.o(.text) for _ttywrch
    defsig_fpe_inner.o(.text) refers to defsig_general.o(.text) for __default_signal_display
    libshutdown2.o(.ARM.Collect$$libshutdown$$0000000D) refers (Weak) to term_alloc.o(.text) for _terminate_alloc
    fpconst.o(c$$dinf) refers (Special) to usenofp.o(x$fpl$usenofp) for __I$use$fp
    fpconst.o(c$$dnan) refers (Special) to usenofp.o(x$fpl$usenofp) for __I$use$fp
    fpconst.o(c$$finf) refers (Special) to usenofp.o(x$fpl$usenofp) for __I$use$fp
    fpconst.o(c$$dmax) refers (Special) to usenofp.o(x$fpl$usenofp) for __I$use$fp
    retnan.o(x$fpl$retnan) refers (Special) to usenofp.o(x$fpl$usenofp) for __I$use$fp
    retnan.o(x$fpl$retnan) refers to trapv.o(x$fpl$trapveneer) for __fpl_cmpreturn
    scanf2.o(x$fpl$scanf2) refers to scanf_hexfp.o(.text) for _scanf_really_hex_real
    scanf2.o(x$fpl$scanf2) refers to scanf_infnan.o(.text) for _scanf_really_infnan
    scanf2b.o(x$fpl$scanf2) refers to scanf_hexfp.o(.text) for _scanf_really_hex_real
    scanf2b.o(x$fpl$scanf2) refers to scanf_infnan.o(.text) for _scanf_really_infnan
    narrow.o(i.__mathlib_narrow) refers (Special) to usenofp.o(x$fpl$usenofp) for __I$use$fp
    narrow.o(i.__mathlib_narrow) refers to narrow.o(i.__mathlib_tofloat) for __mathlib_tofloat
    narrow.o(i.__mathlib_tofloat) refers (Special) to usenofp.o(x$fpl$usenofp) for __I$use$fp
    narrow.o(i.__mathlib_tofloat) refers to frexp.o(i.frexp) for frexp
    narrow.o(i.__mathlib_tofloat) refers to deqf.o(x$fpl$deqf) for __aeabi_cdcmpeq
    narrow.o(i.__mathlib_tofloat) refers to d2f.o(x$fpl$d2f) for __aeabi_d2f
    narrow.o(i.__mathlib_tofloat) refers to _rserrno.o(.text) for __set_errno
    narrow.o(i.__mathlib_tofloat) refers to drleqf.o(x$fpl$drleqf) for __aeabi_cdrcmple
    narrow.o(i.__softfp___mathlib_tofloat) refers (Special) to usenofp.o(x$fpl$usenofp) for __I$use$fp
    narrow.o(i.__softfp___mathlib_tofloat) refers to narrow.o(i.__mathlib_tofloat) for __mathlib_tofloat
    sys_wrch.o(.text) refers (Special) to use_no_semi.o(.text) for __I$use$semihosting
    sys_wrch.o(.text) refers (Special) to indicate_semi.o(.text) for __semihosting_library_function
    rtexit2.o(.ARM.Collect$$rtexit$$00000003) refers to libshutdown.o(.ARM.Collect$$libshutdown$$00000000) for __rt_lib_shutdown
    rtexit2.o(.ARM.Collect$$rtexit$$00000004) refers to sys_exit.o(.text) for _sys_exit
    rtexit2.o(.ARM.exidx) refers to rtexit2.o(.ARM.Collect$$rtexit$$00000001) for .ARM.Collect$$rtexit$$00000001
    rtexit2.o(.ARM.exidx) refers to rtexit2.o(.ARM.Collect$$rtexit$$00000003) for .ARM.Collect$$rtexit$$00000003
    rtexit2.o(.ARM.exidx) refers to rtexit2.o(.ARM.Collect$$rtexit$$00000004) for .ARM.Collect$$rtexit$$00000004
    scanf_hexfp.o(.text) refers to _chval.o(.text) for _chval
    scanf_hexfp.o(.text) refers to llshl.o(.text) for __aeabi_llsl
    scanf_hexfp.o(.text) refers to ldexp.o(i.__support_ldexp) for __support_ldexp
    scanf_hexfp.o(.text) refers to narrow.o(i.__mathlib_narrow) for __mathlib_narrow
    defsig.o(CL$$defsig) refers to defsig_fpe_inner.o(.text) for __rt_SIGFPE_inner
    defsig.o(CL$$defsig) refers to defsig_rtmem_inner.o(.text) for __rt_SIGRTMEM_inner
    trapv.o(x$fpl$trapveneer) refers (Special) to usenofp.o(x$fpl$usenofp) for __I$use$fp
    frexp.o(i.__softfp_frexp) refers (Special) to usenofp.o(x$fpl$usenofp) for __I$use$fp
    frexp.o(i.__softfp_frexp) refers to scalbn.o(x$fpl$scalbn) for __ARM_scalbn
    frexp.o(i.frexp) refers (Special) to usenofp.o(x$fpl$usenofp) for __I$use$fp
    frexp.o(i.frexp) refers to scalbn.o(x$fpl$scalbn) for __ARM_scalbn
    defsig_abrt_inner.o(.text) refers to defsig_general.o(.text) for __default_signal_display
    defsig_rtred_inner.o(.text) refers to defsig_general.o(.text) for __default_signal_display
    defsig_stak_inner.o(.text) refers to defsig_general.o(.text) for __default_signal_display
    defsig_pvfn_inner.o(.text) refers to defsig_general.o(.text) for __default_signal_display
    defsig_cppl_inner.o(.text) refers to defsig_general.o(.text) for __default_signal_display
    defsig_segv_inner.o(.text) refers to defsig_general.o(.text) for __default_signal_display
    defsig_other.o(.text) refers to defsig_general.o(.text) for __default_signal_display
    libshutdown.o(.ARM.Collect$$libshutdown$$00000000) refers (Special) to libshutdown2.o(.ARM.Collect$$libshutdown$$00000002) for __rt_lib_shutdown_cpp_1
    libshutdown.o(.ARM.Collect$$libshutdown$$00000000) refers (Special) to libshutdown2.o(.ARM.Collect$$libshutdown$$00000007) for __rt_lib_shutdown_fp_trap_1
    libshutdown.o(.ARM.Collect$$libshutdown$$00000000) refers (Special) to libshutdown2.o(.ARM.Collect$$libshutdown$$0000000F) for __rt_lib_shutdown_heap_1
    libshutdown.o(.ARM.Collect$$libshutdown$$00000000) refers (Special) to libshutdown2.o(.ARM.Collect$$libshutdown$$00000010) for __rt_lib_shutdown_return
    libshutdown.o(.ARM.Collect$$libshutdown$$00000000) refers (Special) to libshutdown2.o(.ARM.Collect$$libshutdown$$0000000A) for __rt_lib_shutdown_signal_1
    libshutdown.o(.ARM.Collect$$libshutdown$$00000000) refers (Special) to libshutdown2.o(.ARM.Collect$$libshutdown$$00000004) for __rt_lib_shutdown_stdio_1
    libshutdown.o(.ARM.Collect$$libshutdown$$00000000) refers (Special) to libshutdown2.o(.ARM.Collect$$libshutdown$$0000000C) for __rt_lib_shutdown_user_alloc_1
    ldexp.o(i.__softfp_ldexp) refers (Special) to usenofp.o(x$fpl$usenofp) for __I$use$fp
    ldexp.o(i.__softfp_ldexp) refers to ldexp.o(i.ldexp) for ldexp
    ldexp.o(i.__support_ldexp) refers (Special) to usenofp.o(x$fpl$usenofp) for __I$use$fp
    ldexp.o(i.__support_ldexp) refers to ldexp.o(i.ldexp) for ldexp
    ldexp.o(i.ldexp) refers (Special) to usenofp.o(x$fpl$usenofp) for __I$use$fp
    ldexp.o(i.ldexp) refers to deqf.o(x$fpl$deqf) for __aeabi_cdcmpeq
    ldexp.o(i.ldexp) refers to scalbn.o(x$fpl$scalbn) for __ARM_scalbn
    ldexp.o(i.ldexp) refers to _rserrno.o(.text) for __set_errno
    ldexp.o(i.ldexp) refers to dunder.o(i.__mathlib_dbl_underflow) for __mathlib_dbl_underflow
    ldexp.o(i.ldexp) refers to dunder.o(i.__mathlib_dbl_overflow) for __mathlib_dbl_overflow
    ldexp_x.o(i.____softfp_ldexp$lsc) refers (Special) to usenofp.o(x$fpl$usenofp) for __I$use$fp
    ldexp_x.o(i.____softfp_ldexp$lsc) refers to ldexp_x.o(i.__ldexp$lsc) for __ldexp$lsc
    ldexp_x.o(i.____support_ldexp$lsc) refers (Special) to usenofp.o(x$fpl$usenofp) for __I$use$fp
    ldexp_x.o(i.____support_ldexp$lsc) refers to ldexp_x.o(i.__ldexp$lsc) for __ldexp$lsc
    ldexp_x.o(i.__ldexp$lsc) refers (Special) to usenofp.o(x$fpl$usenofp) for __I$use$fp
    ldexp_x.o(i.__ldexp$lsc) refers to deqf.o(x$fpl$deqf) for __aeabi_cdcmpeq
    ldexp_x.o(i.__ldexp$lsc) refers to scalbn.o(x$fpl$scalbn) for __ARM_scalbn
    ldexp_x.o(i.__ldexp$lsc) refers to _rserrno.o(.text) for __set_errno
    ldexp_x.o(i.__ldexp$lsc) refers to qnan.o(.constdata) for __mathlib_zero
    qnan.o(.constdata) refers (Special) to usenofp.o(x$fpl$usenofp) for __I$use$fp


==============================================================================

Removing Unused input sections from the image.

    Removing main.o(.rev16_text), (4 bytes).
    Removing main.o(.revsh_text), (4 bytes).
    Removing cdv_config.o(.rev16_text), (4 bytes).
    Removing cdv_config.o(.revsh_text), (4 bytes).
    Removing cdv_define.o(.rev16_text), (4 bytes).
    Removing cdv_define.o(.revsh_text), (4 bytes).
    Removing offline.o(.rev16_text), (4 bytes).
    Removing offline.o(.revsh_text), (4 bytes).
    Removing basic_resource.o(.rev16_text), (4 bytes).
    Removing basic_resource.o(.revsh_text), (4 bytes).
    Removing fpga_spi.o(.rev16_text), (4 bytes).
    Removing fpga_spi.o(.revsh_text), (4 bytes).
    Removing fpga.o(.rev16_text), (4 bytes).
    Removing fpga.o(.revsh_text), (4 bytes).
    Removing mainuart.o(.rev16_text), (4 bytes).
    Removing mainuart.o(.revsh_text), (4 bytes).
    Removing log.o(.rev16_text), (4 bytes).
    Removing log.o(.revsh_text), (4 bytes).
    Removing cdv_array.o(.rev16_text), (4 bytes).
    Removing cdv_array.o(.revsh_text), (4 bytes).
    Removing newscript.o(.rev16_text), (4 bytes).
    Removing newscript.o(.revsh_text), (4 bytes).
    Removing modbus.o(.rev16_text), (4 bytes).
    Removing modbus.o(.revsh_text), (4 bytes).
    Removing serial_resource.o(.rev16_text), (4 bytes).
    Removing serial_resource.o(.revsh_text), (4 bytes).
    Removing serial_resource.o(.text), (6 bytes).
    Removing worker.o(.rev16_text), (4 bytes).
    Removing worker.o(.revsh_text), (4 bytes).
    Removing cmdparse.o(.rev16_text), (4 bytes).
    Removing cmdparse.o(.revsh_text), (4 bytes).
    Removing cascade.o(.rev16_text), (4 bytes).
    Removing cascade.o(.revsh_text), (4 bytes).
    Removing tcp_server.o(.rev16_text), (4 bytes).
    Removing tcp_server.o(.revsh_text), (4 bytes).
    Removing udpmain.o(.rev16_text), (4 bytes).
    Removing udpmain.o(.revsh_text), (4 bytes).
    Removing centralizedcontrol.o(.rev16_text), (4 bytes).
    Removing centralizedcontrol.o(.revsh_text), (4 bytes).
    Removing workerdebug.o(.rev16_text), (4 bytes).
    Removing workerdebug.o(.revsh_text), (4 bytes).
    Removing sysmng.o(.rev16_text), (4 bytes).
    Removing sysmng.o(.revsh_text), (4 bytes).
    Removing logic.o(.rev16_text), (4 bytes).
    Removing logic.o(.revsh_text), (4 bytes).
    Removing moto.o(.rev16_text), (4 bytes).
    Removing moto.o(.revsh_text), (4 bytes).
    Removing tray.o(.rev16_text), (4 bytes).
    Removing tray.o(.revsh_text), (4 bytes).
    Removing io.o(.rev16_text), (4 bytes).
    Removing io.o(.revsh_text), (4 bytes).
    Removing var.o(.rev16_text), (4 bytes).
    Removing var.o(.revsh_text), (4 bytes).
    Removing msg.o(.rev16_text), (4 bytes).
    Removing msg.o(.revsh_text), (4 bytes).
    Removing time.o(.rev16_text), (4 bytes).
    Removing time.o(.revsh_text), (4 bytes).
    Removing motoparmtrans.o(.rev16_text), (4 bytes).
    Removing motoparmtrans.o(.revsh_text), (4 bytes).
    Removing motoparmtrans.o(.text), (1536 bytes).
    Removing motoparmtrans.o(.constdata), (16 bytes).
    Removing adc.o(.rev16_text), (4 bytes).
    Removing adc.o(.revsh_text), (4 bytes).
    Removing dac.o(.rev16_text), (4 bytes).
    Removing dac.o(.revsh_text), (4 bytes).
    Removing proportionalvalve.o(.rev16_text), (4 bytes).
    Removing proportionalvalve.o(.revsh_text), (4 bytes).
    Removing dac7512.o(.rev16_text), (4 bytes).
    Removing dac7512.o(.revsh_text), (4 bytes).
    Removing ph.o(.rev16_text), (4 bytes).
    Removing ph.o(.revsh_text), (4 bytes).
    Removing ph.o(.text), (160 bytes).
    Removing ph.o(.constdata), (11 bytes).
    Removing csbctrl.o(.rev16_text), (4 bytes).
    Removing csbctrl.o(.revsh_text), (4 bytes).
    Removing csbctrl.o(.text), (424 bytes).
    Removing universalscom.o(.rev16_text), (4 bytes).
    Removing universalscom.o(.revsh_text), (4 bytes).
    Removing alarm.o(.rev16_text), (4 bytes).
    Removing alarm.o(.revsh_text), (4 bytes).
    Removing led.o(.rev16_text), (4 bytes).
    Removing led.o(.revsh_text), (4 bytes).
    Removing led.o(.data), (4 bytes).
    Removing varexp.o(.rev16_text), (4 bytes).
    Removing varexp.o(.revsh_text), (4 bytes).
    Removing pid.o(.rev16_text), (4 bytes).
    Removing pid.o(.revsh_text), (4 bytes).
    Removing memmng.o(.rev16_text), (4 bytes).
    Removing memmng.o(.revsh_text), (4 bytes).
    Removing flashbak.o(.rev16_text), (4 bytes).
    Removing flashbak.o(.revsh_text), (4 bytes).
    Removing uart1.o(.rev16_text), (4 bytes).
    Removing uart1.o(.revsh_text), (4 bytes).
    Removing uart2.o(.rev16_text), (4 bytes).
    Removing uart2.o(.revsh_text), (4 bytes).
    Removing uart3.o(.rev16_text), (4 bytes).
    Removing uart3.o(.revsh_text), (4 bytes).
    Removing uart4.o(.rev16_text), (4 bytes).
    Removing uart4.o(.revsh_text), (4 bytes).
    Removing uart5.o(.rev16_text), (4 bytes).
    Removing uart5.o(.revsh_text), (4 bytes).
    Removing uart6.o(.rev16_text), (4 bytes).
    Removing uart6.o(.revsh_text), (4 bytes).
    Removing uart6.o(.bss), (52 bytes).
    Removing spix.o(.rev16_text), (4 bytes).
    Removing spix.o(.revsh_text), (4 bytes).
    Removing exti.o(.rev16_text), (4 bytes).
    Removing exti.o(.revsh_text), (4 bytes).
    Removing spi2.o(.rev16_text), (4 bytes).
    Removing spi2.o(.revsh_text), (4 bytes).
    Removing spi3.o(.rev16_text), (4 bytes).
    Removing spi3.o(.revsh_text), (4 bytes).
    Removing uartx.o(.rev16_text), (4 bytes).
    Removing uartx.o(.revsh_text), (4 bytes).
    Removing dmax.o(.rev16_text), (4 bytes).
    Removing dmax.o(.revsh_text), (4 bytes).
    Removing lan8720.o(.rev16_text), (4 bytes).
    Removing lan8720.o(.revsh_text), (4 bytes).
    Removing sram.o(.rev16_text), (4 bytes).
    Removing sram.o(.revsh_text), (4 bytes).
    Removing pvd.o(.rev16_text), (4 bytes).
    Removing pvd.o(.revsh_text), (4 bytes).
    Removing lowpower.o(.rev16_text), (4 bytes).
    Removing lowpower.o(.revsh_text), (4 bytes).
    Removing extipoweroff.o(.rev16_text), (4 bytes).
    Removing extipoweroff.o(.revsh_text), (4 bytes).
    Removing stm32f4xx_it.o(.rev16_text), (4 bytes).
    Removing stm32f4xx_it.o(.revsh_text), (4 bytes).
    Removing system_stm32f4xx.o(.rev16_text), (4 bytes).
    Removing system_stm32f4xx.o(.revsh_text), (4 bytes).
    Removing stm32f4xx_rcc.o(.rev16_text), (4 bytes).
    Removing stm32f4xx_rcc.o(.revsh_text), (4 bytes).
    Removing misc.o(.rev16_text), (4 bytes).
    Removing misc.o(.revsh_text), (4 bytes).
    Removing stm32f4xx_gpio.o(.rev16_text), (4 bytes).
    Removing stm32f4xx_gpio.o(.revsh_text), (4 bytes).
    Removing stm32f4xx_usart.o(.rev16_text), (4 bytes).
    Removing stm32f4xx_usart.o(.revsh_text), (4 bytes).
    Removing stm32f4xx_spi.o(.rev16_text), (4 bytes).
    Removing stm32f4xx_spi.o(.revsh_text), (4 bytes).
    Removing stm32f4xx_tim.o(.rev16_text), (4 bytes).
    Removing stm32f4xx_tim.o(.revsh_text), (4 bytes).
    Removing stm32f4xx_dma.o(.rev16_text), (4 bytes).
    Removing stm32f4xx_dma.o(.revsh_text), (4 bytes).
    Removing stm32f4xx_rtc.o(.rev16_text), (4 bytes).
    Removing stm32f4xx_rtc.o(.revsh_text), (4 bytes).
    Removing stm32f4xx_rtc.o(.text), (3432 bytes).
    Removing stm32f4xx_pwr.o(.rev16_text), (4 bytes).
    Removing stm32f4xx_pwr.o(.revsh_text), (4 bytes).
    Removing stm32f4xx_pwr.o(.text), (364 bytes).
    Removing stm32f4xx_dac.o(.rev16_text), (4 bytes).
    Removing stm32f4xx_dac.o(.revsh_text), (4 bytes).
    Removing stm32f4xx_adc.o(.rev16_text), (4 bytes).
    Removing stm32f4xx_adc.o(.revsh_text), (4 bytes).
    Removing stm32f4xx_dma2d.o(.rev16_text), (4 bytes).
    Removing stm32f4xx_dma2d.o(.revsh_text), (4 bytes).
    Removing stm32f4xx_dma2d.o(.text), (948 bytes).
    Removing stm32f4xx_exti.o(.rev16_text), (4 bytes).
    Removing stm32f4xx_exti.o(.revsh_text), (4 bytes).
    Removing stm32f4xx_syscfg.o(.rev16_text), (4 bytes).
    Removing stm32f4xx_syscfg.o(.revsh_text), (4 bytes).
    Removing stm32f4x7_eth.o(.rev16_text), (4 bytes).
    Removing stm32f4x7_eth.o(.revsh_text), (4 bytes).
    Removing stm32f4xx_fsmc.o(.rev16_text), (4 bytes).
    Removing stm32f4xx_fsmc.o(.revsh_text), (4 bytes).
    Removing stm32f4xx_flash.o(.rev16_text), (4 bytes).
    Removing stm32f4xx_flash.o(.revsh_text), (4 bytes).
    Removing stm32f4xx_flash.o(.text), (1684 bytes).
    Removing bsp.o(.rev16_text), (4 bytes).
    Removing bsp.o(.revsh_text), (4 bytes).
    Removing os_app_hooks.o(.text), (20 bytes).
    Removing cpu_c.o(.text), (1892 bytes).
    Removing lib_math.o(.text), (128 bytes).
    Removing lib_math.o(.data), (4 bytes).
    Removing os_dbg.o(.constdata), (1 bytes).
    Removing os_cpu_c.o(.rev16_text), (4 bytes).
    Removing os_cpu_c.o(.revsh_text), (4 bytes).
    Removing delay.o(.rev16_text), (4 bytes).
    Removing delay.o(.revsh_text), (4 bytes).
    Removing usart.o(.rev16_text), (4 bytes).
    Removing usart.o(.revsh_text), (4 bytes).
    Removing flash.o(.rev16_text), (4 bytes).
    Removing flash.o(.revsh_text), (4 bytes).
    Removing rtc.o(.rev16_text), (4 bytes).
    Removing rtc.o(.revsh_text), (4 bytes).
    Removing rtc.o(.text), (344 bytes).
    Removing rtc.o(.data), (4 bytes).
    Removing sysdef.o(.rev16_text), (4 bytes).
    Removing sysdef.o(.revsh_text), (4 bytes).
    Removing malloc.o(.rev16_text), (4 bytes).
    Removing malloc.o(.revsh_text), (4 bytes).
    Removing flash_if.o(.rev16_text), (4 bytes).
    Removing flash_if.o(.revsh_text), (4 bytes).
    Removing flash_if.o(.text), (612 bytes).
    Removing ethernetif.o(.rev16_text), (4 bytes).
    Removing ethernetif.o(.revsh_text), (4 bytes).
    Removing sys_arch.o(.rev16_text), (4 bytes).
    Removing sys_arch.o(.revsh_text), (4 bytes).
    Removing etharp.o(.rev16_text), (4 bytes).
    Removing etharp.o(.revsh_text), (4 bytes).
    Removing api_lib.o(.rev16_text), (4 bytes).
    Removing api_lib.o(.revsh_text), (4 bytes).
    Removing api_msg.o(.rev16_text), (4 bytes).
    Removing api_msg.o(.revsh_text), (4 bytes).
    Removing err.o(.rev16_text), (4 bytes).
    Removing err.o(.revsh_text), (4 bytes).
    Removing netbuf.o(.rev16_text), (4 bytes).
    Removing netbuf.o(.revsh_text), (4 bytes).
    Removing netdb.o(.rev16_text), (4 bytes).
    Removing netdb.o(.revsh_text), (4 bytes).
    Removing netifapi.o(.rev16_text), (4 bytes).
    Removing netifapi.o(.revsh_text), (4 bytes).
    Removing sockets.o(.rev16_text), (4 bytes).
    Removing sockets.o(.revsh_text), (4 bytes).
    Removing tcpip.o(.rev16_text), (4 bytes).
    Removing tcpip.o(.revsh_text), (4 bytes).
    Removing def.o(.rev16_text), (4 bytes).
    Removing def.o(.revsh_text), (4 bytes).
    Removing dhcp.o(.rev16_text), (4 bytes).
    Removing dhcp.o(.revsh_text), (4 bytes).
    Removing dns.o(.rev16_text), (4 bytes).
    Removing dns.o(.revsh_text), (4 bytes).
    Removing init.o(.rev16_text), (4 bytes).
    Removing init.o(.revsh_text), (4 bytes).
    Removing mem.o(.rev16_text), (4 bytes).
    Removing mem.o(.revsh_text), (4 bytes).
    Removing memp.o(.rev16_text), (4 bytes).
    Removing memp.o(.revsh_text), (4 bytes).
    Removing netif.o(.rev16_text), (4 bytes).
    Removing netif.o(.revsh_text), (4 bytes).
    Removing pbuf.o(.rev16_text), (4 bytes).
    Removing pbuf.o(.revsh_text), (4 bytes).
    Removing raw.o(.rev16_text), (4 bytes).
    Removing raw.o(.revsh_text), (4 bytes).
    Removing stats.o(.rev16_text), (4 bytes).
    Removing stats.o(.revsh_text), (4 bytes).
    Removing sys.o(.rev16_text), (4 bytes).
    Removing sys.o(.revsh_text), (4 bytes).
    Removing tcp.o(.rev16_text), (4 bytes).
    Removing tcp.o(.revsh_text), (4 bytes).
    Removing tcp_in.o(.rev16_text), (4 bytes).
    Removing tcp_in.o(.revsh_text), (4 bytes).
    Removing tcp_out.o(.rev16_text), (4 bytes).
    Removing tcp_out.o(.revsh_text), (4 bytes).
    Removing timers.o(.rev16_text), (4 bytes).
    Removing timers.o(.revsh_text), (4 bytes).
    Removing udp.o(.rev16_text), (4 bytes).
    Removing udp.o(.revsh_text), (4 bytes).
    Removing autoip.o(.rev16_text), (4 bytes).
    Removing autoip.o(.revsh_text), (4 bytes).
    Removing icmp.o(.rev16_text), (4 bytes).
    Removing icmp.o(.revsh_text), (4 bytes).
    Removing igmp.o(.rev16_text), (4 bytes).
    Removing igmp.o(.revsh_text), (4 bytes).
    Removing inet.o(.rev16_text), (4 bytes).
    Removing inet.o(.revsh_text), (4 bytes).
    Removing inet_chksum.o(.rev16_text), (4 bytes).
    Removing inet_chksum.o(.revsh_text), (4 bytes).
    Removing ip.o(.rev16_text), (4 bytes).
    Removing ip.o(.revsh_text), (4 bytes).
    Removing ip_addr.o(.rev16_text), (4 bytes).
    Removing ip_addr.o(.revsh_text), (4 bytes).
    Removing ip_frag.o(.rev16_text), (4 bytes).
    Removing ip_frag.o(.revsh_text), (4 bytes).
    Removing lwip_comm.o(.rev16_text), (4 bytes).
    Removing lwip_comm.o(.revsh_text), (4 bytes).
    Removing fs.o(.rev16_text), (4 bytes).
    Removing fs.o(.revsh_text), (4 bytes).
    Removing httpd.o(.rev16_text), (4 bytes).
    Removing httpd.o(.revsh_text), (4 bytes).
    Removing httpd_cgi_ssi.o(.rev16_text), (4 bytes).
    Removing httpd_cgi_ssi.o(.revsh_text), (4 bytes).

272 unused section(s) (total 12650 bytes) removed from the image.

==============================================================================

Image Symbol Table

    Local Symbols

    Symbol Name                              Value     Ov Type        Size  Object(Section)

    ../clib/angel/boardlib.s                 0x00000000   Number         0  boardinit3.o ABSOLUTE
    ../clib/angel/boardlib.s                 0x00000000   Number         0  boardshut.o ABSOLUTE
    ../clib/angel/boardlib.s                 0x00000000   Number         0  boardinit2.o ABSOLUTE
    ../clib/angel/boardlib.s                 0x00000000   Number         0  boardinit1.o ABSOLUTE
    ../clib/angel/dczerorl2.s                0x00000000   Number         0  __dczerorl2.o ABSOLUTE
    ../clib/angel/handlers.s                 0x00000000   Number         0  __scatter_zi.o ABSOLUTE
    ../clib/angel/kernel.s                   0x00000000   Number         0  __rtentry2.o ABSOLUTE
    ../clib/angel/kernel.s                   0x00000000   Number         0  __rtentry4.o ABSOLUTE
    ../clib/angel/kernel.s                   0x00000000   Number         0  rtexit.o ABSOLUTE
    ../clib/angel/kernel.s                   0x00000000   Number         0  rtexit2.o ABSOLUTE
    ../clib/angel/kernel.s                   0x00000000   Number         0  __rtentry.o ABSOLUTE
    ../clib/angel/rt.s                       0x00000000   Number         0  rt_ctype_table.o ABSOLUTE
    ../clib/angel/rt.s                       0x00000000   Number         0  rt_errno_addr_intlibspace.o ABSOLUTE
    ../clib/angel/rt.s                       0x00000000   Number         0  rt_div0.o ABSOLUTE
    ../clib/angel/rt.s                       0x00000000   Number         0  rt_errno_addr.o ABSOLUTE
    ../clib/angel/rt.s                       0x00000000   Number         0  aeabi_ldiv0.o ABSOLUTE
    ../clib/angel/rt.s                       0x00000000   Number         0  rt_locale_intlibspace.o ABSOLUTE
    ../clib/angel/rt.s                       0x00000000   Number         0  rt_locale.o ABSOLUTE
    ../clib/angel/rt.s                       0x00000000   Number         0  rt_heap_descriptor_intlibspace.o ABSOLUTE
    ../clib/angel/rt.s                       0x00000000   Number         0  rt_heap_descriptor.o ABSOLUTE
    ../clib/angel/rt.s                       0x00000000   Number         0  aeabi_ldiv0_sigfpe.o ABSOLUTE
    ../clib/angel/rt.s                       0x00000000   Number         0  rt_raise.o ABSOLUTE
    ../clib/angel/scatter.s                  0x00000000   Number         0  __scatter.o ABSOLUTE
    ../clib/angel/startup.s                  0x00000000   Number         0  __main.o ABSOLUTE
    ../clib/angel/sys.s                      0x00000000   Number         0  mutex_dummy.o ABSOLUTE
    ../clib/angel/sys.s                      0x00000000   Number         0  libspace.o ABSOLUTE
    ../clib/angel/sys.s                      0x00000000   Number         0  sys_stackheap_outer.o ABSOLUTE
    ../clib/angel/sys.s                      0x00000000   Number         0  use_no_semi.o ABSOLUTE
    ../clib/angel/sys.s                      0x00000000   Number         0  indicate_semi.o ABSOLUTE
    ../clib/angel/sysapp.c                   0x00000000   Number         0  sys_wrch.o ABSOLUTE
    ../clib/angel/sysapp.c                   0x00000000   Number         0  sys_command.o ABSOLUTE
    ../clib/angel/sysapp.c                   0x00000000   Number         0  sys_exit.o ABSOLUTE
    ../clib/armsys.c                         0x00000000   Number         0  argv_veneer.o ABSOLUTE
    ../clib/armsys.c                         0x00000000   Number         0  _get_argv.o ABSOLUTE
    ../clib/armsys.c                         0x00000000   Number         0  no_argv.o ABSOLUTE
    ../clib/armsys.c                         0x00000000   Number         0  argv_veneer.o ABSOLUTE
    ../clib/armsys.c                         0x00000000   Number         0  _get_argv_nomalloc.o ABSOLUTE
    ../clib/bigflt.c                         0x00000000   Number         0  bigflt0.o ABSOLUTE
    ../clib/btod.s                           0x00000000   Number         0  btod.o ABSOLUTE
    ../clib/ctype.c                          0x00000000   Number         0  isspace.o ABSOLUTE
    ../clib/fenv.c                           0x00000000   Number         0  _rserrno.o ABSOLUTE
    ../clib/heap1.c                          0x00000000   Number         0  h1_free.o ABSOLUTE
    ../clib/heap1.c                          0x00000000   Number         0  h1_alloc.o ABSOLUTE
    ../clib/heap1.c                          0x00000000   Number         0  h1_free_mt.o ABSOLUTE
    ../clib/heap1.c                          0x00000000   Number         0  h1_realloc.o ABSOLUTE
    ../clib/heap1.c                          0x00000000   Number         0  h1_final.o ABSOLUTE
    ../clib/heap1.c                          0x00000000   Number         0  h1_final_mt.o ABSOLUTE
    ../clib/heap1.c                          0x00000000   Number         0  h1_init.o ABSOLUTE
    ../clib/heap1.c                          0x00000000   Number         0  h1_init_mt.o ABSOLUTE
    ../clib/heap1.c                          0x00000000   Number         0  h1_alloc_mt.o ABSOLUTE
    ../clib/heap1.c                          0x00000000   Number         0  h1_extend_mt.o ABSOLUTE
    ../clib/heap1.c                          0x00000000   Number         0  h1_extend.o ABSOLUTE
    ../clib/heap1.c                          0x00000000   Number         0  h1_realloc_mt.o ABSOLUTE
    ../clib/heap2.c                          0x00000000   Number         0  heap2.o ABSOLUTE
    ../clib/heap2.c                          0x00000000   Number         0  fdtree.o ABSOLUTE
    ../clib/heap2.c                          0x00000000   Number         0  heap2mt.o ABSOLUTE
    ../clib/heapalloc.c                      0x00000000   Number         0  realloc.o ABSOLUTE
    ../clib/heapalloc.c                      0x00000000   Number         0  term_alloc.o ABSOLUTE
    ../clib/heapalloc.c                      0x00000000   Number         0  heapstubs.o ABSOLUTE
    ../clib/heapalloc.c                      0x00000000   Number         0  maybetermalloc2.o ABSOLUTE
    ../clib/heapalloc.c                      0x00000000   Number         0  maybetermalloc1.o ABSOLUTE
    ../clib/heapalloc.c                      0x00000000   Number         0  malloc.o ABSOLUTE
    ../clib/heapalloc.c                      0x00000000   Number         0  hguard.o ABSOLUTE
    ../clib/heapalloc.c                      0x00000000   Number         0  init_alloc.o ABSOLUTE
    ../clib/heapalloc.c                      0x00000000   Number         0  free.o ABSOLUTE
    ../clib/heapalloc.c                      0x00000000   Number         0  maybetermalloc1.o ABSOLUTE
    ../clib/heapalloc.c                      0x00000000   Number         0  maybetermalloc2.o ABSOLUTE
    ../clib/heapalloc.c                      0x00000000   Number         0  hrguard.o ABSOLUTE
    ../clib/heapaux.c                        0x00000000   Number         0  heapauxi.o ABSOLUTE
    ../clib/heapaux.c                        0x00000000   Number         0  heapauxa.o ABSOLUTE
    ../clib/libinit.s                        0x00000000   Number         0  libshutdown2.o ABSOLUTE
    ../clib/libinit.s                        0x00000000   Number         0  libinit2.o ABSOLUTE
    ../clib/libinit.s                        0x00000000   Number         0  libshutdown.o ABSOLUTE
    ../clib/libinit.s                        0x00000000   Number         0  libinit.o ABSOLUTE
    ../clib/locale.s                         0x00000000   Number         0  lc_ctype_c.o ABSOLUTE
    ../clib/locale.s                         0x00000000   Number         0  lc_numeric_c.o ABSOLUTE
    ../clib/longlong.s                       0x00000000   Number         0  lludivv7m.o ABSOLUTE
    ../clib/longlong.s                       0x00000000   Number         0  lludiv10.o ABSOLUTE
    ../clib/longlong.s                       0x00000000   Number         0  llshl.o ABSOLUTE
    ../clib/memcpset.s                       0x00000000   Number         0  strcmpv7m.o ABSOLUTE
    ../clib/memcpset.s                       0x00000000   Number         0  rt_memclr.o ABSOLUTE
    ../clib/memcpset.s                       0x00000000   Number         0  rt_memclr_w.o ABSOLUTE
    ../clib/memcpset.s                       0x00000000   Number         0  rt_memcpy_v6.o ABSOLUTE
    ../clib/memcpset.s                       0x00000000   Number         0  aeabi_memset.o ABSOLUTE
    ../clib/memcpset.s                       0x00000000   Number         0  rt_memcpy_w.o ABSOLUTE
    ../clib/misc.s                           0x00000000   Number         0  printf_stubs.o ABSOLUTE
    ../clib/printf.c                         0x00000000   Number         0  _printf_hex_ll.o ABSOLUTE
    ../clib/printf.c                         0x00000000   Number         0  _printf_hex_int.o ABSOLUTE
    ../clib/printf.c                         0x00000000   Number         0  _printf_hex_int_ll.o ABSOLUTE
    ../clib/printf.c                         0x00000000   Number         0  _printf_fp_infnan.o ABSOLUTE
    ../clib/printf.c                         0x00000000   Number         0  _printf_hex_ptr.o ABSOLUTE
    ../clib/printf.c                         0x00000000   Number         0  _printf_hex_int_ptr.o ABSOLUTE
    ../clib/printf.c                         0x00000000   Number         0  _printf_hex_ll_ptr.o ABSOLUTE
    ../clib/printf.c                         0x00000000   Number         0  _printf_hex_int_ll_ptr.o ABSOLUTE
    ../clib/printf.c                         0x00000000   Number         0  __printf_flags.o ABSOLUTE
    ../clib/printf.c                         0x00000000   Number         0  __printf_ss.o ABSOLUTE
    ../clib/printf.c                         0x00000000   Number         0  __printf_flags_ss.o ABSOLUTE
    ../clib/printf.c                         0x00000000   Number         0  __printf_wp.o ABSOLUTE
    ../clib/printf.c                         0x00000000   Number         0  __printf_flags_wp.o ABSOLUTE
    ../clib/printf.c                         0x00000000   Number         0  __printf_flags_ss_wp.o ABSOLUTE
    ../clib/printf.c                         0x00000000   Number         0  __printf_ss_wp.o ABSOLUTE
    ../clib/printf.c                         0x00000000   Number         0  _printf_intcommon.o ABSOLUTE
    ../clib/printf.c                         0x00000000   Number         0  _printf_fp_dec.o ABSOLUTE
    ../clib/printf.c                         0x00000000   Number         0  _printf_char_common.o ABSOLUTE
    ../clib/printf.c                         0x00000000   Number         0  _sputc.o ABSOLUTE
    ../clib/printf.c                         0x00000000   Number         0  _printf_char.o ABSOLUTE
    ../clib/printf.c                         0x00000000   Number         0  noretval__2sprintf.o ABSOLUTE
    ../clib/printf.c                         0x00000000   Number         0  __2sprintf.o ABSOLUTE
    ../clib/printf.c                         0x00000000   Number         0  __printf.o ABSOLUTE
    ../clib/printf.c                         0x00000000   Number         0  _printf_pad.o ABSOLUTE
    ../clib/printf.c                         0x00000000   Number         0  _printf_str.o ABSOLUTE
    ../clib/printf.c                         0x00000000   Number         0  __printf_nopercent.o ABSOLUTE
    ../clib/printf.c                         0x00000000   Number         0  _printf_dec.o ABSOLUTE
    ../clib/printf_percent.s                 0x00000000   Number         0  _printf_percent.o ABSOLUTE
    ../clib/printf_percent.s                 0x00000000   Number         0  _printf_percent_end.o ABSOLUTE
    ../clib/printf_percent.s                 0x00000000   Number         0  _printf_f.o ABSOLUTE
    ../clib/printf_percent.s                 0x00000000   Number         0  _printf_d.o ABSOLUTE
    ../clib/printf_percent.s                 0x00000000   Number         0  _printf_x.o ABSOLUTE
    ../clib/printf_percent.s                 0x00000000   Number         0  _printf_s.o ABSOLUTE
    ../clib/scanf.c                          0x00000000   Number         0  scanf_infnan.o ABSOLUTE
    ../clib/scanf.c                          0x00000000   Number         0  scanf_hexfp.o ABSOLUTE
    ../clib/scanf.c                          0x00000000   Number         0  _chval.o ABSOLUTE
    ../clib/scanf.c                          0x00000000   Number         0  scanf_fp.o ABSOLUTE
    ../clib/scanf.c                          0x00000000   Number         0  atoi.o ABSOLUTE
    ../clib/scanf.c                          0x00000000   Number         0  _sgetc.o ABSOLUTE
    ../clib/scanf.c                          0x00000000   Number         0  strtod.o ABSOLUTE
    ../clib/scanf.c                          0x00000000   Number         0  _strtoul.o ABSOLUTE
    ../clib/scanf.c                          0x00000000   Number         0  strtol.o ABSOLUTE
    ../clib/signal.c                         0x00000000   Number         0  defsig_rtmem_outer.o ABSOLUTE
    ../clib/signal.c                         0x00000000   Number         0  defsig_pvfn_inner.o ABSOLUTE
    ../clib/signal.c                         0x00000000   Number         0  defsig_cppl_inner.o ABSOLUTE
    ../clib/signal.c                         0x00000000   Number         0  defsig_segv_inner.o ABSOLUTE
    ../clib/signal.c                         0x00000000   Number         0  defsig_other.o ABSOLUTE
    ../clib/signal.c                         0x00000000   Number         0  defsig_fpe_outer.o ABSOLUTE
    ../clib/signal.c                         0x00000000   Number         0  defsig_rtmem_inner.o ABSOLUTE
    ../clib/signal.c                         0x00000000   Number         0  defsig_fpe_formal.o ABSOLUTE
    ../clib/signal.c                         0x00000000   Number         0  defsig_exit.o ABSOLUTE
    ../clib/signal.c                         0x00000000   Number         0  __raise.o ABSOLUTE
    ../clib/signal.c                         0x00000000   Number         0  defsig_general.o ABSOLUTE
    ../clib/signal.c                         0x00000000   Number         0  defsig_fpe_inner.o ABSOLUTE
    ../clib/signal.c                         0x00000000   Number         0  defsig_rtmem_formal.o ABSOLUTE
    ../clib/signal.c                         0x00000000   Number         0  defsig_stak_inner.o ABSOLUTE
    ../clib/signal.c                         0x00000000   Number         0  defsig_rtred_inner.o ABSOLUTE
    ../clib/signal.c                         0x00000000   Number         0  defsig_abrt_inner.o ABSOLUTE
    ../clib/signal.s                         0x00000000   Number         0  defsig.o ABSOLUTE
    ../clib/stdlib.c                         0x00000000   Number         0  exit.o ABSOLUTE
    ../clib/string.c                         0x00000000   Number         0  strchr.o ABSOLUTE
    ../clib/string.c                         0x00000000   Number         0  strncmp.o ABSOLUTE
    ../clib/string.c                         0x00000000   Number         0  memcmp.o ABSOLUTE
    ../clib/string.c                         0x00000000   Number         0  strlen.o ABSOLUTE
    ../clib/string.c                         0x00000000   Number         0  strstr.o ABSOLUTE
    ../fplib/d2f.s                           0x00000000   Number         0  d2f.o ABSOLUTE
    ../fplib/daddsub.s                       0x00000000   Number         0  daddsub_clz.o ABSOLUTE
    ../fplib/dcheck1.s                       0x00000000   Number         0  dcheck1.o ABSOLUTE
    ../fplib/dcmpi.s                         0x00000000   Number         0  dcmpi.o ABSOLUTE
    ../fplib/ddiv.s                          0x00000000   Number         0  ddiv.o ABSOLUTE
    ../fplib/deqf.s                          0x00000000   Number         0  deqf.o ABSOLUTE
    ../fplib/dfix.s                          0x00000000   Number         0  dfix.o ABSOLUTE
    ../fplib/dfixu.s                         0x00000000   Number         0  dfixu.o ABSOLUTE
    ../fplib/dflt.s                          0x00000000   Number         0  dflt_clz.o ABSOLUTE
    ../fplib/dleqf.s                         0x00000000   Number         0  dleqf.o ABSOLUTE
    ../fplib/dmul.s                          0x00000000   Number         0  dmul.o ABSOLUTE
    ../fplib/dnaninf.s                       0x00000000   Number         0  dnaninf.o ABSOLUTE
    ../fplib/dretinf.s                       0x00000000   Number         0  dretinf.o ABSOLUTE
    ../fplib/drleqf.s                        0x00000000   Number         0  drleqf.o ABSOLUTE
    ../fplib/dsqrt.s                         0x00000000   Number         0  dsqrt_umaal.o ABSOLUTE
    ../fplib/f2d.s                           0x00000000   Number         0  f2d.o ABSOLUTE
    ../fplib/faddsub.s                       0x00000000   Number         0  faddsub_clz.o ABSOLUTE
    ../fplib/fcmpi.s                         0x00000000   Number         0  fcmpi.o ABSOLUTE
    ../fplib/fdiv.s                          0x00000000   Number         0  fdiv.o ABSOLUTE
    ../fplib/feqf.s                          0x00000000   Number         0  feqf.o ABSOLUTE
    ../fplib/ffix.s                          0x00000000   Number         0  ffix.o ABSOLUTE
    ../fplib/ffixu.s                         0x00000000   Number         0  ffixu.o ABSOLUTE
    ../fplib/fflt.s                          0x00000000   Number         0  fflt_clz.o ABSOLUTE
    ../fplib/fleqf.s                         0x00000000   Number         0  fleqf.o ABSOLUTE
    ../fplib/fmul.s                          0x00000000   Number         0  fmul.o ABSOLUTE
    ../fplib/fnaninf.s                       0x00000000   Number         0  fnaninf.o ABSOLUTE
    ../fplib/fpconst.s                       0x00000000   Number         0  fpconst.o ABSOLUTE
    ../fplib/fpinit.s                        0x00000000   Number         0  fpinit.o ABSOLUTE
    ../fplib/fretinf.s                       0x00000000   Number         0  fretinf.o ABSOLUTE
    ../fplib/frleqf.s                        0x00000000   Number         0  frleqf.o ABSOLUTE
    ../fplib/istatus.s                       0x00000000   Number         0  istatus.o ABSOLUTE
    ../fplib/printf1.s                       0x00000000   Number         0  printf1.o ABSOLUTE
    ../fplib/retnan.s                        0x00000000   Number         0  retnan.o ABSOLUTE
    ../fplib/scalbn.s                        0x00000000   Number         0  scalbn.o ABSOLUTE
    ../fplib/scanf1.s                        0x00000000   Number         0  scanf1.o ABSOLUTE
    ../fplib/scanf2.s                        0x00000000   Number         0  scanf2.o ABSOLUTE
    ../fplib/scanf2a.s                       0x00000000   Number         0  scanf2a.o ABSOLUTE
    ../fplib/scanf2b.s                       0x00000000   Number         0  scanf2b.o ABSOLUTE
    ../fplib/trapv.s                         0x00000000   Number         0  trapv.o ABSOLUTE
    ../fplib/usenofp.s                       0x00000000   Number         0  usenofp.o ABSOLUTE
    ../mathlib/atof.c                        0x00000000   Number         0  atof.o ABSOLUTE
    ../mathlib/cos_i.c                       0x00000000   Number         0  cos_i.o ABSOLUTE
    ../mathlib/dunder.c                      0x00000000   Number         0  dunder.o ABSOLUTE
    ../mathlib/fpclassify.c                  0x00000000   Number         0  fpclassify.o ABSOLUTE
    ../mathlib/frexp.c                       0x00000000   Number         0  frexp.o ABSOLUTE
    ../mathlib/ldexp.c                       0x00000000   Number         0  ldexp_x.o ABSOLUTE
    ../mathlib/ldexp.c                       0x00000000   Number         0  ldexp.o ABSOLUTE
    ../mathlib/narrow.c                      0x00000000   Number         0  narrow.o ABSOLUTE
    ../mathlib/poly.c                        0x00000000   Number         0  poly.o ABSOLUTE
    ../mathlib/qnan.c                        0x00000000   Number         0  qnan.o ABSOLUTE
    ../mathlib/rred.c                        0x00000000   Number         0  rred.o ABSOLUTE
    ../mathlib/sin.c                         0x00000000   Number         0  sin_x.o ABSOLUTE
    ../mathlib/sin.c                         0x00000000   Number         0  sin.o ABSOLUTE
    ../mathlib/sin_i.c                       0x00000000   Number         0  sin_i.o ABSOLUTE
    ../mathlib/sin_i.c                       0x00000000   Number         0  sin_i_x.o ABSOLUTE
    ../mathlib/sqrt.c                        0x00000000   Number         0  sqrt.o ABSOLUTE
    ../mathlib/sqrt.c                        0x00000000   Number         0  sqrt_x.o ABSOLUTE
    ..\Config\dmax.c                         0x00000000   Number         0  dmax.o ABSOLUTE
    ..\Config\exti.c                         0x00000000   Number         0  exti.o ABSOLUTE
    ..\Config\extiPowerOff.c                 0x00000000   Number         0  extipoweroff.o ABSOLUTE
    ..\Config\lan8720.c                      0x00000000   Number         0  lan8720.o ABSOLUTE
    ..\Config\lowPower.c                     0x00000000   Number         0  lowpower.o ABSOLUTE
    ..\Config\pvd.c                          0x00000000   Number         0  pvd.o ABSOLUTE
    ..\Config\spi2.c                         0x00000000   Number         0  spi2.o ABSOLUTE
    ..\Config\spi3.c                         0x00000000   Number         0  spi3.o ABSOLUTE
    ..\Config\spix.c                         0x00000000   Number         0  spix.o ABSOLUTE
    ..\Config\sram.c                         0x00000000   Number         0  sram.o ABSOLUTE
    ..\Config\uart1.c                        0x00000000   Number         0  uart1.o ABSOLUTE
    ..\Config\uart2.c                        0x00000000   Number         0  uart2.o ABSOLUTE
    ..\Config\uart3.c                        0x00000000   Number         0  uart3.o ABSOLUTE
    ..\Config\uart4.c                        0x00000000   Number         0  uart4.o ABSOLUTE
    ..\Config\uart5.c                        0x00000000   Number         0  uart5.o ABSOLUTE
    ..\Config\uart6.c                        0x00000000   Number         0  uart6.o ABSOLUTE
    ..\Config\uartx.c                        0x00000000   Number         0  uartx.o ABSOLUTE
    ..\Libraries\STM32F4x7_ETH_Driver\src\stm32f4x7_eth.c 0x00000000   Number         0  stm32f4x7_eth.o ABSOLUTE
    ..\Libraries\STM32F4xx_StdPeriph_Driver\src\misc.c 0x00000000   Number         0  misc.o ABSOLUTE
    ..\Libraries\STM32F4xx_StdPeriph_Driver\src\stm32f4xx_adc.c 0x00000000   Number         0  stm32f4xx_adc.o ABSOLUTE
    ..\Libraries\STM32F4xx_StdPeriph_Driver\src\stm32f4xx_dac.c 0x00000000   Number         0  stm32f4xx_dac.o ABSOLUTE
    ..\Libraries\STM32F4xx_StdPeriph_Driver\src\stm32f4xx_dma.c 0x00000000   Number         0  stm32f4xx_dma.o ABSOLUTE
    ..\Libraries\STM32F4xx_StdPeriph_Driver\src\stm32f4xx_dma2d.c 0x00000000   Number         0  stm32f4xx_dma2d.o ABSOLUTE
    ..\Libraries\STM32F4xx_StdPeriph_Driver\src\stm32f4xx_exti.c 0x00000000   Number         0  stm32f4xx_exti.o ABSOLUTE
    ..\Libraries\STM32F4xx_StdPeriph_Driver\src\stm32f4xx_flash.c 0x00000000   Number         0  stm32f4xx_flash.o ABSOLUTE
    ..\Libraries\STM32F4xx_StdPeriph_Driver\src\stm32f4xx_fsmc.c 0x00000000   Number         0  stm32f4xx_fsmc.o ABSOLUTE
    ..\Libraries\STM32F4xx_StdPeriph_Driver\src\stm32f4xx_gpio.c 0x00000000   Number         0  stm32f4xx_gpio.o ABSOLUTE
    ..\Libraries\STM32F4xx_StdPeriph_Driver\src\stm32f4xx_pwr.c 0x00000000   Number         0  stm32f4xx_pwr.o ABSOLUTE
    ..\Libraries\STM32F4xx_StdPeriph_Driver\src\stm32f4xx_rcc.c 0x00000000   Number         0  stm32f4xx_rcc.o ABSOLUTE
    ..\Libraries\STM32F4xx_StdPeriph_Driver\src\stm32f4xx_rtc.c 0x00000000   Number         0  stm32f4xx_rtc.o ABSOLUTE
    ..\Libraries\STM32F4xx_StdPeriph_Driver\src\stm32f4xx_spi.c 0x00000000   Number         0  stm32f4xx_spi.o ABSOLUTE
    ..\Libraries\STM32F4xx_StdPeriph_Driver\src\stm32f4xx_syscfg.c 0x00000000   Number         0  stm32f4xx_syscfg.o ABSOLUTE
    ..\Libraries\STM32F4xx_StdPeriph_Driver\src\stm32f4xx_tim.c 0x00000000   Number         0  stm32f4xx_tim.o ABSOLUTE
    ..\Libraries\STM32F4xx_StdPeriph_Driver\src\stm32f4xx_usart.c 0x00000000   Number         0  stm32f4xx_usart.o ABSOLUTE
    ..\Resource\Alarm.c                      0x00000000   Number         0  alarm.o ABSOLUTE
    ..\Resource\CSBCtrl.c                    0x00000000   Number         0  csbctrl.o ABSOLUTE
    ..\Resource\DAC7512.c                    0x00000000   Number         0  dac7512.o ABSOLUTE
    ..\Resource\FlashBak.c                   0x00000000   Number         0  flashbak.o ABSOLUTE
    ..\Resource\IO.c                         0x00000000   Number         0  io.o ABSOLUTE
    ..\Resource\Logic.c                      0x00000000   Number         0  logic.o ABSOLUTE
    ..\Resource\Moto.c                       0x00000000   Number         0  moto.o ABSOLUTE
    ..\Resource\MotoParmTrans.c              0x00000000   Number         0  motoparmtrans.o ABSOLUTE
    ..\Resource\Msg.c                        0x00000000   Number         0  msg.o ABSOLUTE
    ..\Resource\PH.c                         0x00000000   Number         0  ph.o ABSOLUTE
    ..\Resource\PID.c                        0x00000000   Number         0  pid.o ABSOLUTE
    ..\Resource\ProportionalValve\ProportionalValve.c 0x00000000   Number         0  proportionalvalve.o ABSOLUTE
    ..\Resource\SysMng.c                     0x00000000   Number         0  sysmng.o ABSOLUTE
    ..\Resource\Time.c                       0x00000000   Number         0  time.o ABSOLUTE
    ..\Resource\Tray.c                       0x00000000   Number         0  tray.o ABSOLUTE
    ..\Resource\UniversalSCom.c              0x00000000   Number         0  universalscom.o ABSOLUTE
    ..\Resource\Var.c                        0x00000000   Number         0  var.o ABSOLUTE
    ..\Resource\VarExp.c                     0x00000000   Number         0  varexp.o ABSOLUTE
    ..\Resource\adc.c                        0x00000000   Number         0  adc.o ABSOLUTE
    ..\Resource\dac.c                        0x00000000   Number         0  dac.o ABSOLUTE
    ..\Resource\led.c                        0x00000000   Number         0  led.o ABSOLUTE
    ..\Resource\memmng.c                     0x00000000   Number         0  memmng.o ABSOLUTE
    ..\STM32F4xx_StdPeriph_Templates\startup_stm32f40_41xxx.s 0x00000000   Number         0  startup_stm32f40_41xxx.o ABSOLUTE
    ..\STM32F4xx_StdPeriph_Templates\stm32f4xx_it.c 0x00000000   Number         0  stm32f4xx_it.o ABSOLUTE
    ..\STM32F4xx_StdPeriph_Templates\system_stm32f4xx.c 0x00000000   Number         0  system_stm32f4xx.o ABSOLUTE
    ..\ThirdPart\delay.c                     0x00000000   Number         0  delay.o ABSOLUTE
    ..\ThirdPart\flash.c                     0x00000000   Number         0  flash.o ABSOLUTE
    ..\ThirdPart\flash_if.c                  0x00000000   Number         0  flash_if.o ABSOLUTE
    ..\ThirdPart\malloc.c                    0x00000000   Number         0  malloc.o ABSOLUTE
    ..\ThirdPart\rtc.c                       0x00000000   Number         0  rtc.o ABSOLUTE
    ..\ThirdPart\sysdef.c                    0x00000000   Number         0  sysdef.o ABSOLUTE
    ..\ThirdPart\usart.c                     0x00000000   Number         0  usart.o ABSOLUTE
    ..\UCOSIII\Micrium\Software\STM32F417\bsp.c 0x00000000   Number         0  bsp.o ABSOLUTE
    ..\UCOSIII\Micrium\Software\STM32F417\os_app_hooks.c 0x00000000   Number         0  os_app_hooks.o ABSOLUTE
    ..\UCOSIII\Micrium\Software\uC-CPU\ARM-Cortex-M4\RealView\cpu_a.asm 0x00000000   Number         0  cpu_a.o ABSOLUTE
    ..\UCOSIII\Micrium\Software\uC-CPU\ARM-Cortex-M4\RealView\cpu_c.c 0x00000000   Number         0  cpu_c.o ABSOLUTE
    ..\UCOSIII\Micrium\Software\uC-CPU\cpu_core.c 0x00000000   Number         0  cpu_core.o ABSOLUTE
    ..\UCOSIII\Micrium\Software\uC-LIB\Ports\ARM-Cortex-M4\RealView\lib_mem_a.asm 0x00000000   Number         0  lib_mem_a.o ABSOLUTE
    ..\UCOSIII\Micrium\Software\uC-LIB\lib_ascii.c 0x00000000   Number         0  lib_ascii.o ABSOLUTE
    ..\UCOSIII\Micrium\Software\uC-LIB\lib_math.c 0x00000000   Number         0  lib_math.o ABSOLUTE
    ..\UCOSIII\Micrium\Software\uC-LIB\lib_mem.c 0x00000000   Number         0  lib_mem.o ABSOLUTE
    ..\UCOSIII\Micrium\Software\uC-LIB\lib_str.c 0x00000000   Number         0  lib_str.o ABSOLUTE
    ..\UCOSIII\Micrium\Software\uCOS-III\Ports\ARM-Cortex-M4\Generic\RealView\os_cpu_a.asm 0x00000000   Number         0  os_cpu_a.o ABSOLUTE
    ..\UCOSIII\Micrium\Software\uCOS-III\Ports\ARM-Cortex-M4\Generic\RealView\os_cpu_c.c 0x00000000   Number         0  os_cpu_c.o ABSOLUTE
    ..\UCOSIII\Micrium\Software\uCOS-III\Source\os_cfg_app.c 0x00000000   Number         0  os_cfg_app.o ABSOLUTE
    ..\UCOSIII\Micrium\Software\uCOS-III\Source\os_core.c 0x00000000   Number         0  os_core.o ABSOLUTE
    ..\UCOSIII\Micrium\Software\uCOS-III\Source\os_dbg.c 0x00000000   Number         0  os_dbg.o ABSOLUTE
    ..\UCOSIII\Micrium\Software\uCOS-III\Source\os_flag.c 0x00000000   Number         0  os_flag.o ABSOLUTE
    ..\UCOSIII\Micrium\Software\uCOS-III\Source\os_int.c 0x00000000   Number         0  os_int.o ABSOLUTE
    ..\UCOSIII\Micrium\Software\uCOS-III\Source\os_mem.c 0x00000000   Number         0  os_mem.o ABSOLUTE
    ..\UCOSIII\Micrium\Software\uCOS-III\Source\os_msg.c 0x00000000   Number         0  os_msg.o ABSOLUTE
    ..\UCOSIII\Micrium\Software\uCOS-III\Source\os_mutex.c 0x00000000   Number         0  os_mutex.o ABSOLUTE
    ..\UCOSIII\Micrium\Software\uCOS-III\Source\os_pend_multi.c 0x00000000   Number         0  os_pend_multi.o ABSOLUTE
    ..\UCOSIII\Micrium\Software\uCOS-III\Source\os_prio.c 0x00000000   Number         0  os_prio.o ABSOLUTE
    ..\UCOSIII\Micrium\Software\uCOS-III\Source\os_q.c 0x00000000   Number         0  os_q.o ABSOLUTE
    ..\UCOSIII\Micrium\Software\uCOS-III\Source\os_sem.c 0x00000000   Number         0  os_sem.o ABSOLUTE
    ..\UCOSIII\Micrium\Software\uCOS-III\Source\os_stat.c 0x00000000   Number         0  os_stat.o ABSOLUTE
    ..\UCOSIII\Micrium\Software\uCOS-III\Source\os_task.c 0x00000000   Number         0  os_task.o ABSOLUTE
    ..\UCOSIII\Micrium\Software\uCOS-III\Source\os_tick.c 0x00000000   Number         0  os_tick.o ABSOLUTE
    ..\UCOSIII\Micrium\Software\uCOS-III\Source\os_time.c 0x00000000   Number         0  os_time.o ABSOLUTE
    ..\UCOSIII\Micrium\Software\uCOS-III\Source\os_tmr.c 0x00000000   Number         0  os_tmr.o ABSOLUTE
    ..\UCOSIII\Micrium\Software\uCOS-III\Source\os_var.c 0x00000000   Number         0  os_var.o ABSOLUTE
    ..\User\Cascade.c                        0x00000000   Number         0  cascade.o ABSOLUTE
    ..\User\CentralizedControl.c             0x00000000   Number         0  centralizedcontrol.o ABSOLUTE
    ..\User\FPGA.c                           0x00000000   Number         0  fpga.o ABSOLUTE
    ..\User\FPGA_spi.c                       0x00000000   Number         0  fpga_spi.o ABSOLUTE
    ..\User\basic_resource.c                 0x00000000   Number         0  basic_resource.o ABSOLUTE
    ..\User\cdv_array.c                      0x00000000   Number         0  cdv_array.o ABSOLUTE
    ..\User\cdv_config.c                     0x00000000   Number         0  cdv_config.o ABSOLUTE
    ..\User\cdv_define.c                     0x00000000   Number         0  cdv_define.o ABSOLUTE
    ..\User\cmdParse.c                       0x00000000   Number         0  cmdparse.o ABSOLUTE
    ..\User\log.c                            0x00000000   Number         0  log.o ABSOLUTE
    ..\User\main.c                           0x00000000   Number         0  main.o ABSOLUTE
    ..\User\mainUart.c                       0x00000000   Number         0  mainuart.o ABSOLUTE
    ..\User\modbus.c                         0x00000000   Number         0  modbus.o ABSOLUTE
    ..\User\newScript.c                      0x00000000   Number         0  newscript.o ABSOLUTE
    ..\User\offline.c                        0x00000000   Number         0  offline.o ABSOLUTE
    ..\User\serial_resource.c                0x00000000   Number         0  serial_resource.o ABSOLUTE
    ..\User\worker.c                         0x00000000   Number         0  worker.o ABSOLUTE
    ..\User\workerDebug.c                    0x00000000   Number         0  workerdebug.o ABSOLUTE
    ..\\Config\\dmax.c                       0x00000000   Number         0  dmax.o ABSOLUTE
    ..\\Config\\exti.c                       0x00000000   Number         0  exti.o ABSOLUTE
    ..\\Config\\extiPowerOff.c               0x00000000   Number         0  extipoweroff.o ABSOLUTE
    ..\\Config\\lan8720.c                    0x00000000   Number         0  lan8720.o ABSOLUTE
    ..\\Config\\lowPower.c                   0x00000000   Number         0  lowpower.o ABSOLUTE
    ..\\Config\\pvd.c                        0x00000000   Number         0  pvd.o ABSOLUTE
    ..\\Config\\spi2.c                       0x00000000   Number         0  spi2.o ABSOLUTE
    ..\\Config\\spi3.c                       0x00000000   Number         0  spi3.o ABSOLUTE
    ..\\Config\\spix.c                       0x00000000   Number         0  spix.o ABSOLUTE
    ..\\Config\\sram.c                       0x00000000   Number         0  sram.o ABSOLUTE
    ..\\Config\\uart1.c                      0x00000000   Number         0  uart1.o ABSOLUTE
    ..\\Config\\uart2.c                      0x00000000   Number         0  uart2.o ABSOLUTE
    ..\\Config\\uart3.c                      0x00000000   Number         0  uart3.o ABSOLUTE
    ..\\Config\\uart4.c                      0x00000000   Number         0  uart4.o ABSOLUTE
    ..\\Config\\uart5.c                      0x00000000   Number         0  uart5.o ABSOLUTE
    ..\\Config\\uart6.c                      0x00000000   Number         0  uart6.o ABSOLUTE
    ..\\Config\\uartx.c                      0x00000000   Number         0  uartx.o ABSOLUTE
    ..\\Libraries\\STM32F4x7_ETH_Driver\\src\\stm32f4x7_eth.c 0x00000000   Number         0  stm32f4x7_eth.o ABSOLUTE
    ..\\Libraries\\STM32F4xx_StdPeriph_Driver\\src\\misc.c 0x00000000   Number         0  misc.o ABSOLUTE
    ..\\Libraries\\STM32F4xx_StdPeriph_Driver\\src\\stm32f4xx_adc.c 0x00000000   Number         0  stm32f4xx_adc.o ABSOLUTE
    ..\\Libraries\\STM32F4xx_StdPeriph_Driver\\src\\stm32f4xx_dac.c 0x00000000   Number         0  stm32f4xx_dac.o ABSOLUTE
    ..\\Libraries\\STM32F4xx_StdPeriph_Driver\\src\\stm32f4xx_dma.c 0x00000000   Number         0  stm32f4xx_dma.o ABSOLUTE
    ..\\Libraries\\STM32F4xx_StdPeriph_Driver\\src\\stm32f4xx_dma2d.c 0x00000000   Number         0  stm32f4xx_dma2d.o ABSOLUTE
    ..\\Libraries\\STM32F4xx_StdPeriph_Driver\\src\\stm32f4xx_exti.c 0x00000000   Number         0  stm32f4xx_exti.o ABSOLUTE
    ..\\Libraries\\STM32F4xx_StdPeriph_Driver\\src\\stm32f4xx_flash.c 0x00000000   Number         0  stm32f4xx_flash.o ABSOLUTE
    ..\\Libraries\\STM32F4xx_StdPeriph_Driver\\src\\stm32f4xx_fsmc.c 0x00000000   Number         0  stm32f4xx_fsmc.o ABSOLUTE
    ..\\Libraries\\STM32F4xx_StdPeriph_Driver\\src\\stm32f4xx_gpio.c 0x00000000   Number         0  stm32f4xx_gpio.o ABSOLUTE
    ..\\Libraries\\STM32F4xx_StdPeriph_Driver\\src\\stm32f4xx_pwr.c 0x00000000   Number         0  stm32f4xx_pwr.o ABSOLUTE
    ..\\Libraries\\STM32F4xx_StdPeriph_Driver\\src\\stm32f4xx_rcc.c 0x00000000   Number         0  stm32f4xx_rcc.o ABSOLUTE
    ..\\Libraries\\STM32F4xx_StdPeriph_Driver\\src\\stm32f4xx_rtc.c 0x00000000   Number         0  stm32f4xx_rtc.o ABSOLUTE
    ..\\Libraries\\STM32F4xx_StdPeriph_Driver\\src\\stm32f4xx_spi.c 0x00000000   Number         0  stm32f4xx_spi.o ABSOLUTE
    ..\\Libraries\\STM32F4xx_StdPeriph_Driver\\src\\stm32f4xx_syscfg.c 0x00000000   Number         0  stm32f4xx_syscfg.o ABSOLUTE
    ..\\Libraries\\STM32F4xx_StdPeriph_Driver\\src\\stm32f4xx_tim.c 0x00000000   Number         0  stm32f4xx_tim.o ABSOLUTE
    ..\\Libraries\\STM32F4xx_StdPeriph_Driver\\src\\stm32f4xx_usart.c 0x00000000   Number         0  stm32f4xx_usart.o ABSOLUTE
    ..\\Resource\\Alarm.c                    0x00000000   Number         0  alarm.o ABSOLUTE
    ..\\Resource\\CSBCtrl.c                  0x00000000   Number         0  csbctrl.o ABSOLUTE
    ..\\Resource\\DAC7512.c                  0x00000000   Number         0  dac7512.o ABSOLUTE
    ..\\Resource\\FlashBak.c                 0x00000000   Number         0  flashbak.o ABSOLUTE
    ..\\Resource\\IO.c                       0x00000000   Number         0  io.o ABSOLUTE
    ..\\Resource\\Logic.c                    0x00000000   Number         0  logic.o ABSOLUTE
    ..\\Resource\\Moto.c                     0x00000000   Number         0  moto.o ABSOLUTE
    ..\\Resource\\MotoParmTrans.c            0x00000000   Number         0  motoparmtrans.o ABSOLUTE
    ..\\Resource\\Msg.c                      0x00000000   Number         0  msg.o ABSOLUTE
    ..\\Resource\\PH.c                       0x00000000   Number         0  ph.o ABSOLUTE
    ..\\Resource\\PID.c                      0x00000000   Number         0  pid.o ABSOLUTE
    ..\\Resource\\ProportionalValve\\ProportionalValve.c 0x00000000   Number         0  proportionalvalve.o ABSOLUTE
    ..\\Resource\\SysMng.c                   0x00000000   Number         0  sysmng.o ABSOLUTE
    ..\\Resource\\Time.c                     0x00000000   Number         0  time.o ABSOLUTE
    ..\\Resource\\Tray.c                     0x00000000   Number         0  tray.o ABSOLUTE
    ..\\Resource\\UniversalSCom.c            0x00000000   Number         0  universalscom.o ABSOLUTE
    ..\\Resource\\Var.c                      0x00000000   Number         0  var.o ABSOLUTE
    ..\\Resource\\VarExp.c                   0x00000000   Number         0  varexp.o ABSOLUTE
    ..\\Resource\\adc.c                      0x00000000   Number         0  adc.o ABSOLUTE
    ..\\Resource\\dac.c                      0x00000000   Number         0  dac.o ABSOLUTE
    ..\\Resource\\led.c                      0x00000000   Number         0  led.o ABSOLUTE
    ..\\Resource\\memmng.c                   0x00000000   Number         0  memmng.o ABSOLUTE
    ..\\STM32F4xx_StdPeriph_Templates\\stm32f4xx_it.c 0x00000000   Number         0  stm32f4xx_it.o ABSOLUTE
    ..\\STM32F4xx_StdPeriph_Templates\\system_stm32f4xx.c 0x00000000   Number         0  system_stm32f4xx.o ABSOLUTE
    ..\\ThirdPart\\delay.c                   0x00000000   Number         0  delay.o ABSOLUTE
    ..\\ThirdPart\\flash.c                   0x00000000   Number         0  flash.o ABSOLUTE
    ..\\ThirdPart\\flash_if.c                0x00000000   Number         0  flash_if.o ABSOLUTE
    ..\\ThirdPart\\malloc.c                  0x00000000   Number         0  malloc.o ABSOLUTE
    ..\\ThirdPart\\rtc.c                     0x00000000   Number         0  rtc.o ABSOLUTE
    ..\\ThirdPart\\sysdef.c                  0x00000000   Number         0  sysdef.o ABSOLUTE
    ..\\ThirdPart\\usart.c                   0x00000000   Number         0  usart.o ABSOLUTE
    ..\\UCOSIII\\Micrium\\Software\\STM32F417\\bsp.c 0x00000000   Number         0  bsp.o ABSOLUTE
    ..\\UCOSIII\\Micrium\\Software\\uCOS-III\\Ports\\ARM-Cortex-M4\\Generic\\RealView\\os_cpu_c.c 0x00000000   Number         0  os_cpu_c.o ABSOLUTE
    ..\\User\\Cascade.c                      0x00000000   Number         0  cascade.o ABSOLUTE
    ..\\User\\CentralizedControl.c           0x00000000   Number         0  centralizedcontrol.o ABSOLUTE
    ..\\User\\FPGA.c                         0x00000000   Number         0  fpga.o ABSOLUTE
    ..\\User\\FPGA_spi.c                     0x00000000   Number         0  fpga_spi.o ABSOLUTE
    ..\\User\\basic_resource.c               0x00000000   Number         0  basic_resource.o ABSOLUTE
    ..\\User\\cdv_array.c                    0x00000000   Number         0  cdv_array.o ABSOLUTE
    ..\\User\\cdv_config.c                   0x00000000   Number         0  cdv_config.o ABSOLUTE
    ..\\User\\cdv_define.c                   0x00000000   Number         0  cdv_define.o ABSOLUTE
    ..\\User\\cmdParse.c                     0x00000000   Number         0  cmdparse.o ABSOLUTE
    ..\\User\\log.c                          0x00000000   Number         0  log.o ABSOLUTE
    ..\\User\\main.c                         0x00000000   Number         0  main.o ABSOLUTE
    ..\\User\\mainUart.c                     0x00000000   Number         0  mainuart.o ABSOLUTE
    ..\\User\\modbus.c                       0x00000000   Number         0  modbus.o ABSOLUTE
    ..\\User\\newScript.c                    0x00000000   Number         0  newscript.o ABSOLUTE
    ..\\User\\offline.c                      0x00000000   Number         0  offline.o ABSOLUTE
    ..\\User\\serial_resource.c              0x00000000   Number         0  serial_resource.o ABSOLUTE
    ..\\User\\worker.c                       0x00000000   Number         0  worker.o ABSOLUTE
    ..\\User\\workerDebug.c                  0x00000000   Number         0  workerdebug.o ABSOLUTE
    ..\\lwip-1.4.1\\port\\STM32F4x7\\UCOSIII\\ethernetif.c 0x00000000   Number         0  ethernetif.o ABSOLUTE
    ..\\lwip-1.4.1\\port\\STM32F4x7\\UCOSIII\\sys_arch.c 0x00000000   Number         0  sys_arch.o ABSOLUTE
    ..\\lwip-1.4.1\\prj\\lwip_comm.c         0x00000000   Number         0  lwip_comm.o ABSOLUTE
    ..\\lwip-1.4.1\\prj\\tcp_server\\tcp_server.c 0x00000000   Number         0  tcp_server.o ABSOLUTE
    ..\\lwip-1.4.1\\prj\\udp\\udpmain.c      0x00000000   Number         0  udpmain.o ABSOLUTE
    ..\\lwip-1.4.1\\prj\\web_server_demo\\fs.c 0x00000000   Number         0  fs.o ABSOLUTE
    ..\\lwip-1.4.1\\prj\\web_server_demo\\httpd.c 0x00000000   Number         0  httpd.o ABSOLUTE
    ..\\lwip-1.4.1\\prj\\web_server_demo\\httpd_cgi_ssi.c 0x00000000   Number         0  httpd_cgi_ssi.o ABSOLUTE
    ..\\lwip-1.4.1\\src\\api\\api_lib.c      0x00000000   Number         0  api_lib.o ABSOLUTE
    ..\\lwip-1.4.1\\src\\api\\api_msg.c      0x00000000   Number         0  api_msg.o ABSOLUTE
    ..\\lwip-1.4.1\\src\\api\\err.c          0x00000000   Number         0  err.o ABSOLUTE
    ..\\lwip-1.4.1\\src\\api\\netbuf.c       0x00000000   Number         0  netbuf.o ABSOLUTE
    ..\\lwip-1.4.1\\src\\api\\netdb.c        0x00000000   Number         0  netdb.o ABSOLUTE
    ..\\lwip-1.4.1\\src\\api\\netifapi.c     0x00000000   Number         0  netifapi.o ABSOLUTE
    ..\\lwip-1.4.1\\src\\api\\sockets.c      0x00000000   Number         0  sockets.o ABSOLUTE
    ..\\lwip-1.4.1\\src\\api\\tcpip.c        0x00000000   Number         0  tcpip.o ABSOLUTE
    ..\\lwip-1.4.1\\src\\core\\def.c         0x00000000   Number         0  def.o ABSOLUTE
    ..\\lwip-1.4.1\\src\\core\\dhcp.c        0x00000000   Number         0  dhcp.o ABSOLUTE
    ..\\lwip-1.4.1\\src\\core\\dns.c         0x00000000   Number         0  dns.o ABSOLUTE
    ..\\lwip-1.4.1\\src\\core\\init.c        0x00000000   Number         0  init.o ABSOLUTE
    ..\\lwip-1.4.1\\src\\core\\ipv4\\autoip.c 0x00000000   Number         0  autoip.o ABSOLUTE
    ..\\lwip-1.4.1\\src\\core\\ipv4\\icmp.c  0x00000000   Number         0  icmp.o ABSOLUTE
    ..\\lwip-1.4.1\\src\\core\\ipv4\\igmp.c  0x00000000   Number         0  igmp.o ABSOLUTE
    ..\\lwip-1.4.1\\src\\core\\ipv4\\inet.c  0x00000000   Number         0  inet.o ABSOLUTE
    ..\\lwip-1.4.1\\src\\core\\ipv4\\inet_chksum.c 0x00000000   Number         0  inet_chksum.o ABSOLUTE
    ..\\lwip-1.4.1\\src\\core\\ipv4\\ip.c    0x00000000   Number         0  ip.o ABSOLUTE
    ..\\lwip-1.4.1\\src\\core\\ipv4\\ip_addr.c 0x00000000   Number         0  ip_addr.o ABSOLUTE
    ..\\lwip-1.4.1\\src\\core\\ipv4\\ip_frag.c 0x00000000   Number         0  ip_frag.o ABSOLUTE
    ..\\lwip-1.4.1\\src\\core\\mem.c         0x00000000   Number         0  mem.o ABSOLUTE
    ..\\lwip-1.4.1\\src\\core\\memp.c        0x00000000   Number         0  memp.o ABSOLUTE
    ..\\lwip-1.4.1\\src\\core\\netif.c       0x00000000   Number         0  netif.o ABSOLUTE
    ..\\lwip-1.4.1\\src\\core\\pbuf.c        0x00000000   Number         0  pbuf.o ABSOLUTE
    ..\\lwip-1.4.1\\src\\core\\raw.c         0x00000000   Number         0  raw.o ABSOLUTE
    ..\\lwip-1.4.1\\src\\core\\stats.c       0x00000000   Number         0  stats.o ABSOLUTE
    ..\\lwip-1.4.1\\src\\core\\sys.c         0x00000000   Number         0  sys.o ABSOLUTE
    ..\\lwip-1.4.1\\src\\core\\tcp.c         0x00000000   Number         0  tcp.o ABSOLUTE
    ..\\lwip-1.4.1\\src\\core\\tcp_in.c      0x00000000   Number         0  tcp_in.o ABSOLUTE
    ..\\lwip-1.4.1\\src\\core\\tcp_out.c     0x00000000   Number         0  tcp_out.o ABSOLUTE
    ..\\lwip-1.4.1\\src\\core\\timers.c      0x00000000   Number         0  timers.o ABSOLUTE
    ..\\lwip-1.4.1\\src\\core\\udp.c         0x00000000   Number         0  udp.o ABSOLUTE
    ..\\lwip-1.4.1\\src\\netif\\etharp.c     0x00000000   Number         0  etharp.o ABSOLUTE
    ..\lwip-1.4.1\port\STM32F4x7\UCOSIII\ethernetif.c 0x00000000   Number         0  ethernetif.o ABSOLUTE
    ..\lwip-1.4.1\port\STM32F4x7\UCOSIII\sys_arch.c 0x00000000   Number         0  sys_arch.o ABSOLUTE
    ..\lwip-1.4.1\prj\lwip_comm.c            0x00000000   Number         0  lwip_comm.o ABSOLUTE
    ..\lwip-1.4.1\prj\tcp_server\tcp_server.c 0x00000000   Number         0  tcp_server.o ABSOLUTE
    ..\lwip-1.4.1\prj\udp\udpmain.c          0x00000000   Number         0  udpmain.o ABSOLUTE
    ..\lwip-1.4.1\prj\web_server_demo\fs.c   0x00000000   Number         0  fs.o ABSOLUTE
    ..\lwip-1.4.1\prj\web_server_demo\httpd.c 0x00000000   Number         0  httpd.o ABSOLUTE
    ..\lwip-1.4.1\prj\web_server_demo\httpd_cgi_ssi.c 0x00000000   Number         0  httpd_cgi_ssi.o ABSOLUTE
    ..\lwip-1.4.1\src\api\api_lib.c          0x00000000   Number         0  api_lib.o ABSOLUTE
    ..\lwip-1.4.1\src\api\api_msg.c          0x00000000   Number         0  api_msg.o ABSOLUTE
    ..\lwip-1.4.1\src\api\err.c              0x00000000   Number         0  err.o ABSOLUTE
    ..\lwip-1.4.1\src\api\netbuf.c           0x00000000   Number         0  netbuf.o ABSOLUTE
    ..\lwip-1.4.1\src\api\netdb.c            0x00000000   Number         0  netdb.o ABSOLUTE
    ..\lwip-1.4.1\src\api\netifapi.c         0x00000000   Number         0  netifapi.o ABSOLUTE
    ..\lwip-1.4.1\src\api\sockets.c          0x00000000   Number         0  sockets.o ABSOLUTE
    ..\lwip-1.4.1\src\api\tcpip.c            0x00000000   Number         0  tcpip.o ABSOLUTE
    ..\lwip-1.4.1\src\core\def.c             0x00000000   Number         0  def.o ABSOLUTE
    ..\lwip-1.4.1\src\core\dhcp.c            0x00000000   Number         0  dhcp.o ABSOLUTE
    ..\lwip-1.4.1\src\core\dns.c             0x00000000   Number         0  dns.o ABSOLUTE
    ..\lwip-1.4.1\src\core\init.c            0x00000000   Number         0  init.o ABSOLUTE
    ..\lwip-1.4.1\src\core\ipv4\autoip.c     0x00000000   Number         0  autoip.o ABSOLUTE
    ..\lwip-1.4.1\src\core\ipv4\icmp.c       0x00000000   Number         0  icmp.o ABSOLUTE
    ..\lwip-1.4.1\src\core\ipv4\igmp.c       0x00000000   Number         0  igmp.o ABSOLUTE
    ..\lwip-1.4.1\src\core\ipv4\inet.c       0x00000000   Number         0  inet.o ABSOLUTE
    ..\lwip-1.4.1\src\core\ipv4\inet_chksum.c 0x00000000   Number         0  inet_chksum.o ABSOLUTE
    ..\lwip-1.4.1\src\core\ipv4\ip.c         0x00000000   Number         0  ip.o ABSOLUTE
    ..\lwip-1.4.1\src\core\ipv4\ip_addr.c    0x00000000   Number         0  ip_addr.o ABSOLUTE
    ..\lwip-1.4.1\src\core\ipv4\ip_frag.c    0x00000000   Number         0  ip_frag.o ABSOLUTE
    ..\lwip-1.4.1\src\core\mem.c             0x00000000   Number         0  mem.o ABSOLUTE
    ..\lwip-1.4.1\src\core\memp.c            0x00000000   Number         0  memp.o ABSOLUTE
    ..\lwip-1.4.1\src\core\netif.c           0x00000000   Number         0  netif.o ABSOLUTE
    ..\lwip-1.4.1\src\core\pbuf.c            0x00000000   Number         0  pbuf.o ABSOLUTE
    ..\lwip-1.4.1\src\core\raw.c             0x00000000   Number         0  raw.o ABSOLUTE
    ..\lwip-1.4.1\src\core\stats.c           0x00000000   Number         0  stats.o ABSOLUTE
    ..\lwip-1.4.1\src\core\sys.c             0x00000000   Number         0  sys.o ABSOLUTE
    ..\lwip-1.4.1\src\core\tcp.c             0x00000000   Number         0  tcp.o ABSOLUTE
    ..\lwip-1.4.1\src\core\tcp_in.c          0x00000000   Number         0  tcp_in.o ABSOLUTE
    ..\lwip-1.4.1\src\core\tcp_out.c         0x00000000   Number         0  tcp_out.o ABSOLUTE
    ..\lwip-1.4.1\src\core\timers.c          0x00000000   Number         0  timers.o ABSOLUTE
    ..\lwip-1.4.1\src\core\udp.c             0x00000000   Number         0  udp.o ABSOLUTE
    ..\lwip-1.4.1\src\netif\etharp.c         0x00000000   Number         0  etharp.o ABSOLUTE
    dc.s                                     0x00000000   Number         0  dc.o ABSOLUTE
    RESET                                    0x08020000   Section      392  startup_stm32f40_41xxx.o(RESET)
    !!!main                                  0x08020188   Section        8  __main.o(!!!main)
    !!!scatter                               0x08020190   Section       52  __scatter.o(!!!scatter)
    !!dczerorl2                              0x080201c4   Section       90  __dczerorl2.o(!!dczerorl2)
    !!handler_zi                             0x08020220   Section       28  __scatter_zi.o(!!handler_zi)
    .ARM.Collect$$_printf_percent$$00000000  0x0802023c   Section        0  _printf_percent.o(.ARM.Collect$$_printf_percent$$00000000)
    .ARM.Collect$$_printf_percent$$00000003  0x0802023c   Section        6  _printf_f.o(.ARM.Collect$$_printf_percent$$00000003)
    .ARM.Collect$$_printf_percent$$00000009  0x08020242   Section        6  _printf_d.o(.ARM.Collect$$_printf_percent$$00000009)
    .ARM.Collect$$_printf_percent$$0000000C  0x08020248   Section        6  _printf_x.o(.ARM.Collect$$_printf_percent$$0000000C)
    .ARM.Collect$$_printf_percent$$00000014  0x0802024e   Section        6  _printf_s.o(.ARM.Collect$$_printf_percent$$00000014)
    .ARM.Collect$$_printf_percent$$00000017  0x08020254   Section        4  _printf_percent_end.o(.ARM.Collect$$_printf_percent$$00000017)
    .ARM.Collect$$libinit$$00000000          0x08020258   Section        2  libinit.o(.ARM.Collect$$libinit$$00000000)
    .ARM.Collect$$libinit$$00000002          0x0802025a   Section        0  libinit2.o(.ARM.Collect$$libinit$$00000002)
    .ARM.Collect$$libinit$$00000004          0x0802025a   Section        0  libinit2.o(.ARM.Collect$$libinit$$00000004)
    .ARM.Collect$$libinit$$00000005          0x0802025a   Section        8  libinit2.o(.ARM.Collect$$libinit$$00000005)
    .ARM.Collect$$libinit$$0000000A          0x08020262   Section        0  libinit2.o(.ARM.Collect$$libinit$$0000000A)
    .ARM.Collect$$libinit$$0000000C          0x08020262   Section        0  libinit2.o(.ARM.Collect$$libinit$$0000000C)
    .ARM.Collect$$libinit$$0000000E          0x08020262   Section        0  libinit2.o(.ARM.Collect$$libinit$$0000000E)
    .ARM.Collect$$libinit$$0000000F          0x08020262   Section        6  libinit2.o(.ARM.Collect$$libinit$$0000000F)
    .ARM.Collect$$libinit$$00000011          0x08020268   Section        0  libinit2.o(.ARM.Collect$$libinit$$00000011)
    .ARM.Collect$$libinit$$00000012          0x08020268   Section       12  libinit2.o(.ARM.Collect$$libinit$$00000012)
    .ARM.Collect$$libinit$$00000013          0x08020274   Section        0  libinit2.o(.ARM.Collect$$libinit$$00000013)
    .ARM.Collect$$libinit$$00000015          0x08020274   Section        0  libinit2.o(.ARM.Collect$$libinit$$00000015)
    .ARM.Collect$$libinit$$00000016          0x08020274   Section       10  libinit2.o(.ARM.Collect$$libinit$$00000016)
    .ARM.Collect$$libinit$$00000017          0x0802027e   Section        0  libinit2.o(.ARM.Collect$$libinit$$00000017)
    .ARM.Collect$$libinit$$00000019          0x0802027e   Section        0  libinit2.o(.ARM.Collect$$libinit$$00000019)
    .ARM.Collect$$libinit$$0000001B          0x0802027e   Section        0  libinit2.o(.ARM.Collect$$libinit$$0000001B)
    .ARM.Collect$$libinit$$0000001D          0x0802027e   Section        0  libinit2.o(.ARM.Collect$$libinit$$0000001D)
    .ARM.Collect$$libinit$$0000001F          0x0802027e   Section        0  libinit2.o(.ARM.Collect$$libinit$$0000001F)
    .ARM.Collect$$libinit$$00000021          0x0802027e   Section        0  libinit2.o(.ARM.Collect$$libinit$$00000021)
    .ARM.Collect$$libinit$$00000023          0x0802027e   Section        0  libinit2.o(.ARM.Collect$$libinit$$00000023)
    .ARM.Collect$$libinit$$00000025          0x0802027e   Section        0  libinit2.o(.ARM.Collect$$libinit$$00000025)
    .ARM.Collect$$libinit$$0000002C          0x0802027e   Section        0  libinit2.o(.ARM.Collect$$libinit$$0000002C)
    .ARM.Collect$$libinit$$0000002E          0x0802027e   Section        0  libinit2.o(.ARM.Collect$$libinit$$0000002E)
    .ARM.Collect$$libinit$$00000030          0x0802027e   Section        0  libinit2.o(.ARM.Collect$$libinit$$00000030)
    .ARM.Collect$$libinit$$00000032          0x0802027e   Section        0  libinit2.o(.ARM.Collect$$libinit$$00000032)
    .ARM.Collect$$libinit$$00000033          0x0802027e   Section        2  libinit2.o(.ARM.Collect$$libinit$$00000033)
    .ARM.Collect$$libshutdown$$00000000      0x08020280   Section        2  libshutdown.o(.ARM.Collect$$libshutdown$$00000000)
    .ARM.Collect$$libshutdown$$00000002      0x08020282   Section        0  libshutdown2.o(.ARM.Collect$$libshutdown$$00000002)
    .ARM.Collect$$libshutdown$$00000004      0x08020282   Section        0  libshutdown2.o(.ARM.Collect$$libshutdown$$00000004)
    .ARM.Collect$$libshutdown$$00000007      0x08020282   Section        0  libshutdown2.o(.ARM.Collect$$libshutdown$$00000007)
    .ARM.Collect$$libshutdown$$0000000A      0x08020282   Section        0  libshutdown2.o(.ARM.Collect$$libshutdown$$0000000A)
    .ARM.Collect$$libshutdown$$0000000C      0x08020282   Section        0  libshutdown2.o(.ARM.Collect$$libshutdown$$0000000C)
    .ARM.Collect$$libshutdown$$0000000F      0x08020282   Section        0  libshutdown2.o(.ARM.Collect$$libshutdown$$0000000F)
    .ARM.Collect$$libshutdown$$00000010      0x08020282   Section        2  libshutdown2.o(.ARM.Collect$$libshutdown$$00000010)
    .ARM.Collect$$rtentry$$00000000          0x08020284   Section        0  __rtentry.o(.ARM.Collect$$rtentry$$00000000)
    .ARM.Collect$$rtentry$$00000002          0x08020284   Section        0  __rtentry2.o(.ARM.Collect$$rtentry$$00000002)
    .ARM.Collect$$rtentry$$00000004          0x08020284   Section        6  __rtentry4.o(.ARM.Collect$$rtentry$$00000004)
    .ARM.Collect$$rtentry$$00000009          0x0802028a   Section        0  __rtentry2.o(.ARM.Collect$$rtentry$$00000009)
    .ARM.Collect$$rtentry$$0000000A          0x0802028a   Section        4  __rtentry2.o(.ARM.Collect$$rtentry$$0000000A)
    .ARM.Collect$$rtentry$$0000000C          0x0802028e   Section        0  __rtentry2.o(.ARM.Collect$$rtentry$$0000000C)
    .ARM.Collect$$rtentry$$0000000D          0x0802028e   Section        8  __rtentry2.o(.ARM.Collect$$rtentry$$0000000D)
    .ARM.Collect$$rtexit$$00000000           0x08020296   Section        2  rtexit.o(.ARM.Collect$$rtexit$$00000000)
    .ARM.Collect$$rtexit$$00000002           0x08020298   Section        0  rtexit2.o(.ARM.Collect$$rtexit$$00000002)
    .ARM.Collect$$rtexit$$00000003           0x08020298   Section        4  rtexit2.o(.ARM.Collect$$rtexit$$00000003)
    .ARM.Collect$$rtexit$$00000004           0x0802029c   Section        6  rtexit2.o(.ARM.Collect$$rtexit$$00000004)
    .emb_text                                0x080202a4   Section       16  sysdef.o(.emb_text)
    .emb_text                                0x080202b4   Section        0  maybetermalloc1.o(.emb_text)
    .text                                    0x080202b4   Section        0  main.o(.text)
    .text                                    0x08020cbc   Section        0  cdv_config.o(.text)
    .text                                    0x08021114   Section        0  cdv_define.o(.text)
    .text                                    0x0802117c   Section        0  offline.o(.text)
    .text                                    0x08021318   Section        0  basic_resource.o(.text)
    .text                                    0x080216b0   Section        0  fpga_spi.o(.text)
    .text                                    0x08021cb0   Section        0  mainuart.o(.text)
    .text                                    0x08023340   Section        0  log.o(.text)
    .text                                    0x08023a80   Section        0  cdv_array.o(.text)
    .text                                    0x08024358   Section        0  newscript.o(.text)
    .text                                    0x08024a04   Section        0  modbus.o(.text)
    .text                                    0x080262bc   Section        0  worker.o(.text)
    .text                                    0x08026cdc   Section        0  cmdparse.o(.text)
    .text                                    0x08027168   Section        0  cascade.o(.text)
    .text                                    0x080298bc   Section        0  tcp_server.o(.text)
    netconn_connected_thread                 0x08029ba5   Thumb Code    12  tcp_server.o(.text)
    netconn_server_thread                    0x08029c0f   Thumb Code   370  tcp_server.o(.text)
    tcp_server_thread                        0x08029d81   Thumb Code   342  tcp_server.o(.text)
    .text                                    0x0802a170   Section        0  udpmain.o(.text)
    udpecho_thread                           0x0802a171   Thumb Code   252  udpmain.o(.text)
    .text                                    0x0802a454   Section        0  centralizedcontrol.o(.text)
    .text                                    0x0802a8ec   Section        0  sysmng.o(.text)
    .text                                    0x0802aa0c   Section        0  logic.o(.text)
    .text                                    0x0802aef4   Section        0  io.o(.text)
    .text                                    0x0802c3d0   Section        0  var.o(.text)
    .text                                    0x0802cae0   Section        0  msg.o(.text)
    .text                                    0x0802cc08   Section        0  time.o(.text)
    .text                                    0x0802cf00   Section        0  adc.o(.text)
    .text                                    0x0802de78   Section        0  dac.o(.text)
    .text                                    0x0802e4f8   Section        0  dac7512.o(.text)
    .text                                    0x0802e684   Section        0  universalscom.o(.text)
    .text                                    0x0802ebe0   Section        0  alarm.o(.text)
    .text                                    0x0802ef64   Section        0  led.o(.text)
    .text                                    0x0802f0e8   Section        0  varexp.o(.text)
    .text                                    0x080307c8   Section        0  memmng.o(.text)
    .text                                    0x080309f0   Section        0  uart1.o(.text)
    .text                                    0x08030d3c   Section        0  uart2.o(.text)
    .text                                    0x08030fec   Section        0  uart3.o(.text)
    .text                                    0x08031358   Section        0  uart4.o(.text)
    .text                                    0x08031600   Section        0  uart5.o(.text)
    .text                                    0x080318b4   Section        0  uart6.o(.text)
    .text                                    0x08031c20   Section        0  spix.o(.text)
    .text                                    0x08031cf4   Section        0  exti.o(.text)
    .text                                    0x08031db0   Section        0  spi2.o(.text)
    .text                                    0x08031edc   Section        0  spi3.o(.text)
    .text                                    0x0803214c   Section        0  uartx.o(.text)
    .text                                    0x080325e4   Section        0  dmax.o(.text)
    .text                                    0x08032710   Section        0  lan8720.o(.text)
    ETHERNET_NVICConfiguration               0x080327a1   Thumb Code    32  lan8720.o(.text)
    ETH_MACDMA_Config1                       0x08032b53   Thumb Code   256  lan8720.o(.text)
    .text                                    0x08032e44   Section        0  sram.o(.text)
    .text                                    0x0803319c   Section        0  stm32f4xx_it.o(.text)
    .text                                    0x080331fc   Section        0  system_stm32f4xx.o(.text)
    SetSysClock                              0x080331fd   Thumb Code   220  system_stm32f4xx.o(.text)
    .text                                    0x08033400   Section       64  startup_stm32f40_41xxx.o(.text)
    .text                                    0x08033440   Section        0  stm32f4xx_rcc.o(.text)
    .text                                    0x08033a9c   Section        0  misc.o(.text)
    .text                                    0x08033b7c   Section        0  stm32f4xx_gpio.o(.text)
    .text                                    0x08033e10   Section        0  stm32f4xx_usart.o(.text)
    .text                                    0x08034264   Section        0  stm32f4xx_spi.o(.text)
    .text                                    0x080346e4   Section        0  stm32f4xx_tim.o(.text)
    TI4_Config                               0x08034e83   Thumb Code    80  stm32f4xx_tim.o(.text)
    TI3_Config                               0x08034ee5   Thumb Code    72  stm32f4xx_tim.o(.text)
    TI2_Config                               0x08034f47   Thumb Code    90  stm32f4xx_tim.o(.text)
    TI1_Config                               0x08034fb3   Thumb Code    58  stm32f4xx_tim.o(.text)
    .text                                    0x08035388   Section        0  stm32f4xx_dma.o(.text)
    .text                                    0x08035730   Section        0  stm32f4xx_dac.o(.text)
    .text                                    0x08035940   Section        0  stm32f4xx_adc.o(.text)
    .text                                    0x08035da4   Section        0  stm32f4xx_exti.o(.text)
    .text                                    0x08035eb4   Section        0  stm32f4xx_syscfg.o(.text)
    .text                                    0x08035f48   Section        0  stm32f4x7_eth.o(.text)
    .text                                    0x08036f9c   Section        0  stm32f4xx_fsmc.o(.text)
    .text                                    0x08037564   Section        0  bsp.o(.text)
    .text                                    0x080375e8   Section        0  cpu_core.o(.text)
    CPU_NameInit                             0x08037613   Thumb Code     8  cpu_core.o(.text)
    CPU_TS_Init                              0x0803761b   Thumb Code    14  cpu_core.o(.text)
    .text                                    0x08037890   Section        0  lib_ascii.o(.text)
    .text                                    0x08037ae8   Section        0  lib_mem.o(.text)
    Mem_SegAlloc                             0x08037cff   Thumb Code    60  lib_mem.o(.text)
    Mem_SegCalcTotSize                       0x08037d3b   Thumb Code    60  lib_mem.o(.text)
    .text                                    0x080384b0   Section        0  lib_str.o(.text)
    Str_FmtNbr_Int32                         0x08038969   Thumb Code   474  lib_str.o(.text)
    Str_ParseNbr_Int32                       0x08038baf   Thumb Code   446  lib_str.o(.text)
    .text                                    0x08038dd8   Section        0  os_cfg_app.o(.text)
    .text                                    0x08038ddc   Section        0  os_core.o(.text)
    .text                                    0x08039a0c   Section        0  os_mem.o(.text)
    .text                                    0x08039bd8   Section        0  os_msg.o(.text)
    .text                                    0x08039e00   Section        0  os_mutex.o(.text)
    .text                                    0x0803a4ec   Section        0  os_prio.o(.text)
    .text                                    0x0803a568   Section        0  os_q.o(.text)
    .text                                    0x0803abc8   Section        0  os_sem.o(.text)
    .text                                    0x0803b23c   Section        0  os_task.o(.text)
    .text                                    0x0803c4f0   Section        0  os_tick.o(.text)
    .text                                    0x0803c974   Section        0  os_time.o(.text)
    .text                                    0x0803cdd0   Section        0  os_tmr.o(.text)
    .text                                    0x0803d560   Section        0  os_cpu_c.o(.text)
    .text                                    0x0803d714   Section       52  cpu_a.o(.text)
    .text                                    0x0803d748   Section      544  lib_mem_a.o(.text)
    .text                                    0x0803d968   Section        0  delay.o(.text)
    .text                                    0x0803db78   Section        0  flash.o(.text)
    .text                                    0x0803e244   Section        0  malloc.o(.text)
    .text                                    0x0803e48c   Section        0  ethernetif.o(.text)
    low_level_output                         0x0803e48d   Thumb Code   170  ethernetif.o(.text)
    low_level_input                          0x0803e537   Thumb Code   232  ethernetif.o(.text)
    low_level_init                           0x0803e649   Thumb Code   164  ethernetif.o(.text)
    arp_timer                                0x0803e6ed   Thumb Code    22  ethernetif.o(.text)
    .text                                    0x0803e760   Section        0  sys_arch.o(.text)
    .text                                    0x0803eae0   Section        0  etharp.o(.text)
    etharp_free_entry                        0x0803eae1   Thumb Code    58  etharp.o(.text)
    etharp_find_entry                        0x0803eba3   Thumb Code   348  etharp.o(.text)
    etharp_send_ip                           0x0803ecff   Thumb Code    54  etharp.o(.text)
    etharp_update_arp_entry                  0x0803ed35   Thumb Code   184  etharp.o(.text)
    etharp_arp_input                         0x0803ee73   Thumb Code   298  etharp.o(.text)
    etharp_raw                               0x0803ef9d   Thumb Code   182  etharp.o(.text)
    etharp_output_to_arp_index               0x0803f077   Thumb Code   104  etharp.o(.text)
    .text                                    0x0803f42c   Section        0  api_lib.o(.text)
    netconn_recv_data                        0x0803f70f   Thumb Code   314  api_lib.o(.text)
    netconn_close_shutdown                   0x0803fa71   Thumb Code    72  api_lib.o(.text)
    .text                                    0x0803fafc   Section        0  api_msg.o(.text)
    recv_raw                                 0x0803fafd   Thumb Code   154  api_msg.o(.text)
    recv_udp                                 0x0803fb97   Thumb Code   134  api_msg.o(.text)
    recv_tcp                                 0x0803fc1d   Thumb Code   144  api_msg.o(.text)
    err_tcp                                  0x0803fcad   Thumb Code   208  api_msg.o(.text)
    do_writemore                             0x0803fd7d   Thumb Code   404  api_msg.o(.text)
    sent_tcp                                 0x0803ff11   Thumb Code   114  api_msg.o(.text)
    do_close_internal                        0x0803ff83   Thumb Code   308  api_msg.o(.text)
    poll_tcp                                 0x080400b7   Thumb Code   108  api_msg.o(.text)
    setup_tcp                                0x08040123   Thumb Code    50  api_msg.o(.text)
    accept_function                          0x08040227   Thumb Code   174  api_msg.o(.text)
    pcb_new                                  0x080402d5   Thumb Code   148  api_msg.o(.text)
    netconn_drain                            0x08040389   Thumb Code   170  api_msg.o(.text)
    do_connected                             0x0804058d   Thumb Code   154  api_msg.o(.text)
    .text                                    0x08040a78   Section        0  netbuf.o(.text)
    .text                                    0x08040c08   Section        0  tcpip.o(.text)
    tcpip_thread                             0x08040c09   Thumb Code   186  tcpip.o(.text)
    pbuf_free_int                            0x08040e93   Thumb Code    14  tcpip.o(.text)
    .text                                    0x08040ee8   Section        0  def.o(.text)
    .text                                    0x08040f26   Section        0  init.o(.text)
    .text                                    0x08040f48   Section        0  mem.o(.text)
    plug_holes                               0x08040f49   Thumb Code   124  mem.o(.text)
    .text                                    0x080412c8   Section        0  memp.o(.text)
    .text                                    0x0804139c   Section        0  netif.o(.text)
    .text                                    0x0804163c   Section        0  pbuf.o(.text)
    .text                                    0x08041d8c   Section        0  raw.o(.text)
    .text                                    0x08041f3c   Section        0  tcp.o(.text)
    tcp_close_shutdown                       0x0804234d   Thumb Code   466  tcp.o(.text)
    tcp_new_port                             0x08042831   Thumb Code    96  tcp.o(.text)
    tcp_accept_null                          0x0804291f   Thumb Code     8  tcp.o(.text)
    tcp_kill_prio                            0x08042b77   Thumb Code    76  tcp.o(.text)
    tcp_kill_timewait                        0x08042bc3   Thumb Code    50  tcp.o(.text)
    .text                                    0x08042d2c   Section        0  tcp_in.o(.text)
    tcp_receive                              0x08042d2d   Thumb Code  1576  tcp_in.o(.text)
    tcp_parseopt                             0x08043355   Thumb Code   178  tcp_in.o(.text)
    tcp_process                              0x08043407   Thumb Code  1378  tcp_in.o(.text)
    tcp_listen_input                         0x08043969   Thumb Code   320  tcp_in.o(.text)
    tcp_timewait_input                       0x08043aa9   Thumb Code   140  tcp_in.o(.text)
    .text                                    0x08043fcc   Section        0  tcp_out.o(.text)
    tcp_output_alloc_header                  0x08043fcd   Thumb Code   120  tcp_out.o(.text)
    tcp_create_segment                       0x08044045   Thumb Code   172  tcp_out.o(.text)
    tcp_pbuf_prealloc                        0x0804424b   Thumb Code   120  tcp_out.o(.text)
    tcp_write_checks                         0x080442c3   Thumb Code   112  tcp_out.o(.text)
    tcp_output_segment                       0x08044705   Thumb Code   202  tcp_out.o(.text)
    .text                                    0x08044bfc   Section        0  timers.o(.text)
    tcpip_tcp_timer                          0x08044c95   Thumb Code    40  timers.o(.text)
    ip_reass_timer                           0x08044ce3   Thumb Code    22  timers.o(.text)
    arp_timer                                0x08044cf9   Thumb Code    22  timers.o(.text)
    .text                                    0x08044e24   Section        0  udp.o(.text)
    udp_new_port                             0x08044e27   Thumb Code    80  udp.o(.text)
    .text                                    0x08045268   Section        0  icmp.o(.text)
    icmp_send_response                       0x080453bd   Thumb Code   112  icmp.o(.text)
    .text                                    0x08045458   Section        0  inet_chksum.o(.text)
    lwip_standard_chksum                     0x08045459   Thumb Code    94  inet_chksum.o(.text)
    .text                                    0x0804567c   Section        0  ip.o(.text)
    .text                                    0x08045954   Section        0  ip_addr.o(.text)
    .text                                    0x08045c0c   Section        0  ip_frag.o(.text)
    ip_reass_dequeue_datagram                0x08045c0d   Thumb Code    40  ip_frag.o(.text)
    ip_reass_free_complete_datagram          0x08045c35   Thumb Code   156  ip_frag.o(.text)
    ip_reass_remove_oldest_datagram          0x08045d01   Thumb Code   118  ip_frag.o(.text)
    ip_reass_enqueue_new_datagram            0x08045d77   Thumb Code    80  ip_frag.o(.text)
    ip_reass_chain_frag_into_datagram_and_validate 0x08045dc7   Thumb Code   352  ip_frag.o(.text)
    ip_frag_alloc_pbuf_custom_ref            0x080460b3   Thumb Code    10  ip_frag.o(.text)
    ip_frag_free_pbuf_custom_ref             0x080460bd   Thumb Code    18  ip_frag.o(.text)
    ipfrag_free_pbuf_custom                  0x080460cf   Thumb Code    32  ip_frag.o(.text)
    .text                                    0x080462a0   Section        0  lwip_comm.o(.text)
    .text                                    0x080465b0   Section        0  fs.o(.text)
    fs_malloc                                0x080465b1   Thumb Code    54  fs.o(.text)
    fs_free                                  0x080465e7   Thumb Code    48  fs.o(.text)
    .text                                    0x080466b8   Section        0  httpd.o(.text)
    strnstr                                  0x080466b9   Thumb Code    74  httpd.o(.text)
    http_state_alloc                         0x08046703   Thumb Code    28  httpd.o(.text)
    http_state_free                          0x0804671f   Thumb Code    42  httpd.o(.text)
    http_write                               0x08046749   Thumb Code    82  httpd.o(.text)
    get_tag_insert                           0x0804679b   Thumb Code   172  httpd.o(.text)
    http_send_data                           0x08046847   Thumb Code  1428  httpd.o(.text)
    http_poll                                0x08046ddb   Thumb Code    72  httpd.o(.text)
    http_close_conn                          0x08046e23   Thumb Code    76  httpd.o(.text)
    extract_uri_parameters                   0x08046e6f   Thumb Code   126  httpd.o(.text)
    http_get_404_file                        0x08046eed   Thumb Code    54  httpd.o(.text)
    http_init_file                           0x08046f23   Thumb Code   118  httpd.o(.text)
    http_find_file                           0x08046f99   Thumb Code   362  httpd.o(.text)
    http_parse_request                       0x08047103   Thumb Code   290  httpd.o(.text)
    http_err                                 0x08047225   Thumb Code    18  httpd.o(.text)
    http_sent                                0x08047237   Thumb Code    36  httpd.o(.text)
    http_recv                                0x0804725b   Thumb Code   142  httpd.o(.text)
    http_accept                              0x080472e9   Thumb Code    86  httpd.o(.text)
    httpd_init_addr                          0x0804733f   Thumb Code    70  httpd.o(.text)
    .text                                    0x0804740c   Section        0  httpd_cgi_ssi.o(.text)
    .text                                    0x08047588   Section       16  rt_ctype_table.o(.text)
    .text                                    0x08047598   Section        0  h1_alloc.o(.text)
    .text                                    0x080475f6   Section        0  h1_free.o(.text)
    .text                                    0x08047644   Section        0  h1_realloc.o(.text)
    .text                                    0x080476fc   Section      238  lludivv7m.o(.text)
    .text                                    0x080477ec   Section        0  noretval__2sprintf.o(.text)
    .text                                    0x08047814   Section        0  _printf_pad.o(.text)
    .text                                    0x08047862   Section        0  _printf_str.o(.text)
    .text                                    0x080478b4   Section        0  _printf_dec.o(.text)
    .text                                    0x0804792c   Section        0  _printf_hex_int.o(.text)
    .text                                    0x08047984   Section        0  __printf_flags_ss_wp.o(.text)
    .text                                    0x08047b0c   Section        0  atoi.o(.text)
    .text                                    0x08047b26   Section        0  strchr.o(.text)
    .text                                    0x08047b3a   Section        0  strstr.o(.text)
    .text                                    0x08047b5e   Section        0  memcmp.o(.text)
    .text                                    0x08047bb6   Section        0  strlen.o(.text)
    .text                                    0x08047bf4   Section        0  strncmp.o(.text)
    .text                                    0x08047c8a   Section      138  rt_memcpy_v6.o(.text)
    .text                                    0x08047d14   Section      100  rt_memcpy_w.o(.text)
    .text                                    0x08047d78   Section       16  aeabi_memset.o(.text)
    .text                                    0x08047d88   Section       68  rt_memclr.o(.text)
    .text                                    0x08047dcc   Section       78  rt_memclr_w.o(.text)
    .text                                    0x08047e1c   Section      128  strcmpv7m.o(.text)
    .text                                    0x08047e9c   Section        0  heapauxi.o(.text)
    .text                                    0x08047ea4   Section        8  rt_heap_descriptor_intlibspace.o(.text)
    .text                                    0x08047eac   Section        8  rt_locale_intlibspace.o(.text)
    .text                                    0x08047eb4   Section        8  rt_errno_addr_intlibspace.o(.text)
    .text                                    0x08047ebc   Section        0  hguard.o(.text)
    .text                                    0x08047ec0   Section        0  init_alloc.o(.text)
    .text                                    0x08047f4a   Section        0  h1_init.o(.text)
    .text                                    0x08047f58   Section        0  _rserrno.o(.text)
    .text                                    0x08047f6e   Section        0  _printf_intcommon.o(.text)
    .text                                    0x08048020   Section        0  _printf_fp_dec.o(.text)
    _fp_digits                               0x08048023   Thumb Code   432  _printf_fp_dec.o(.text)
    .text                                    0x08048440   Section        0  _printf_char_common.o(.text)
    _printf_input_char                       0x08048441   Thumb Code    10  _printf_char_common.o(.text)
    .text                                    0x08048470   Section        0  _sputc.o(.text)
    .text                                    0x0804847a   Section        0  _printf_char.o(.text)
    .text                                    0x080484a8   Section        0  strtod.o(.text)
    _local_sscanf                            0x080484a9   Thumb Code    60  strtod.o(.text)
    .text                                    0x0804854c   Section        0  strtol.o(.text)
    .text                                    0x080485bc   Section        8  libspace.o(.text)
    .text                                    0x080485c4   Section        0  h1_extend.o(.text)
    .text                                    0x080485f8   Section      138  lludiv10.o(.text)
    .text                                    0x08048682   Section        0  isspace.o(.text)
    .text                                    0x08048694   Section        0  _printf_fp_infnan.o(.text)
    .text                                    0x08048714   Section        0  _sgetc.o(.text)
    .text                                    0x08048754   Section        0  _strtoul.o(.text)
    .text                                    0x080487f4   Section        0  bigflt0.o(.text)
    .text                                    0x080488d8   Section        0  defsig_rtmem_outer.o(.text)
    .text                                    0x080488e6   Section        2  use_no_semi.o(.text)
    .text                                    0x080488e8   Section       74  sys_stackheap_outer.o(.text)
    .text                                    0x080488e8   Section        0  indicate_semi.o(.text)
    .text                                    0x08048932   Section        0  _chval.o(.text)
    .text                                    0x08048950   Section        0  scanf_fp.o(.text)
    _fp_value                                0x08048951   Thumb Code   588  scanf_fp.o(.text)
    .text                                    0x08048e48   Section        0  exit.o(.text)
    .text                                    0x08048e5a   Section        0  defsig_exit.o(.text)
    .text                                    0x08048e64   Section        0  defsig_rtmem_inner.o(.text)
    .text                                    0x08048eb4   Section        0  sys_exit.o(.text)
    .text                                    0x08048ec0   Section        0  defsig_general.o(.text)
    .text                                    0x08048ef2   Section        0  sys_wrch.o(.text)
    .text                                    0x08048f00   Section        0  scanf_hexfp.o(.text)
    .text                                    0x08049220   Section        0  scanf_infnan.o(.text)
    .text                                    0x08049354   Section       38  llshl.o(.text)
    CL$$btod_d2e                             0x0804937a   Section       62  btod.o(CL$$btod_d2e)
    CL$$btod_d2e_denorm_low                  0x080493b8   Section       70  btod.o(CL$$btod_d2e_denorm_low)
    CL$$btod_d2e_norm_op1                    0x080493fe   Section       96  btod.o(CL$$btod_d2e_norm_op1)
    CL$$btod_div_common                      0x0804945e   Section      824  btod.o(CL$$btod_div_common)
    CL$$btod_e2d                             0x08049798   Section      132  btod.o(CL$$btod_e2d)
    CL$$btod_e2e                             0x0804981c   Section      220  btod.o(CL$$btod_e2e)
    CL$$btod_ediv                            0x080498f8   Section       42  btod.o(CL$$btod_ediv)
    CL$$btod_edivd                           0x08049922   Section       42  btod.o(CL$$btod_edivd)
    CL$$btod_emul                            0x0804994c   Section       42  btod.o(CL$$btod_emul)
    CL$$btod_emuld                           0x08049976   Section       42  btod.o(CL$$btod_emuld)
    CL$$btod_mult_common                     0x080499a0   Section      580  btod.o(CL$$btod_mult_common)
    CODE                                     0x08049be4   Section      152  os_cpu_a.o(CODE)
    i.__ARM_fpclassify                       0x08049c7c   Section        0  fpclassify.o(i.__ARM_fpclassify)
    i.__mathlib_dbl_overflow                 0x08049ca4   Section        0  dunder.o(i.__mathlib_dbl_overflow)
    i.__mathlib_dbl_underflow                0x08049cb4   Section        0  dunder.o(i.__mathlib_dbl_underflow)
    i.__mathlib_narrow                       0x08049cc4   Section        0  narrow.o(i.__mathlib_narrow)
    i.__mathlib_tofloat                      0x08049cd4   Section        0  narrow.o(i.__mathlib_tofloat)
    i.__support_ldexp                        0x08049d90   Section        0  ldexp.o(i.__support_ldexp)
    i._is_digit                              0x08049da6   Section        0  __printf_wp.o(i._is_digit)
    i.atof                                   0x08049db4   Section        0  atof.o(i.atof)
    i.frexp                                  0x08049de0   Section        0  frexp.o(i.frexp)
    i.ldexp                                  0x08049e38   Section        0  ldexp.o(i.ldexp)
    i.sqrt                                   0x08049eac   Section        0  sqrt.o(i.sqrt)
    locale$$code                             0x08049ef8   Section       44  lc_ctype_c.o(locale$$code)
    locale$$code                             0x08049f24   Section       44  lc_numeric_c.o(locale$$code)
    x$fpl$d2f                                0x08049f50   Section       98  d2f.o(x$fpl$d2f)
    x$fpl$dadd                               0x08049fb4   Section      336  daddsub_clz.o(x$fpl$dadd)
    _dadd1                                   0x08049fc5   Thumb Code     0  daddsub_clz.o(x$fpl$dadd)
    x$fpl$dcheck1                            0x0804a104   Section       16  dcheck1.o(x$fpl$dcheck1)
    x$fpl$dcmpinf                            0x0804a114   Section       24  dcmpi.o(x$fpl$dcmpinf)
    x$fpl$ddiv                               0x0804a12c   Section      688  ddiv.o(x$fpl$ddiv)
    ddiv_entry                               0x0804a133   Thumb Code     0  ddiv.o(x$fpl$ddiv)
    x$fpl$deqf                               0x0804a3dc   Section      120  deqf.o(x$fpl$deqf)
    x$fpl$dfix                               0x0804a454   Section       94  dfix.o(x$fpl$dfix)
    x$fpl$dfixu                              0x0804a4b4   Section       90  dfixu.o(x$fpl$dfixu)
    x$fpl$dflt                               0x0804a50e   Section       46  dflt_clz.o(x$fpl$dflt)
    x$fpl$dfltu                              0x0804a53c   Section       38  dflt_clz.o(x$fpl$dfltu)
    x$fpl$dleqf                              0x0804a564   Section      120  dleqf.o(x$fpl$dleqf)
    x$fpl$dmul                               0x0804a5dc   Section      340  dmul.o(x$fpl$dmul)
    x$fpl$dnaninf                            0x0804a730   Section      156  dnaninf.o(x$fpl$dnaninf)
    x$fpl$dretinf                            0x0804a7cc   Section       12  dretinf.o(x$fpl$dretinf)
    x$fpl$drleqf                             0x0804a7d8   Section      108  drleqf.o(x$fpl$drleqf)
    x$fpl$drsb                               0x0804a844   Section       22  daddsub_clz.o(x$fpl$drsb)
    x$fpl$dsqrt                              0x0804a85c   Section      408  dsqrt_umaal.o(x$fpl$dsqrt)
    x$fpl$dsub                               0x0804a9f4   Section      468  daddsub_clz.o(x$fpl$dsub)
    _dsub1                                   0x0804aa05   Thumb Code     0  daddsub_clz.o(x$fpl$dsub)
    x$fpl$f2d                                0x0804abc8   Section       86  f2d.o(x$fpl$f2d)
    x$fpl$fadd                               0x0804ac20   Section      196  faddsub_clz.o(x$fpl$fadd)
    _fadd1                                   0x0804ac2f   Thumb Code     0  faddsub_clz.o(x$fpl$fadd)
    x$fpl$fcmpinf                            0x0804ace4   Section       24  fcmpi.o(x$fpl$fcmpinf)
    x$fpl$fdiv                               0x0804acfc   Section      388  fdiv.o(x$fpl$fdiv)
    _fdiv1                                   0x0804acfd   Thumb Code     0  fdiv.o(x$fpl$fdiv)
    x$fpl$feqf                               0x0804ae80   Section      104  feqf.o(x$fpl$feqf)
    x$fpl$ffix                               0x0804aee8   Section       54  ffix.o(x$fpl$ffix)
    x$fpl$ffixu                              0x0804af20   Section       62  ffixu.o(x$fpl$ffixu)
    x$fpl$fflt                               0x0804af60   Section       48  fflt_clz.o(x$fpl$fflt)
    x$fpl$ffltu                              0x0804af90   Section       38  fflt_clz.o(x$fpl$ffltu)
    x$fpl$fleqf                              0x0804afb8   Section      104  fleqf.o(x$fpl$fleqf)
    x$fpl$fmul                               0x0804b020   Section      258  fmul.o(x$fpl$fmul)
    x$fpl$fnaninf                            0x0804b122   Section      140  fnaninf.o(x$fpl$fnaninf)
    x$fpl$fretinf                            0x0804b1ae   Section       10  fretinf.o(x$fpl$fretinf)
    x$fpl$frleqf                             0x0804b1b8   Section       98  frleqf.o(x$fpl$frleqf)
    x$fpl$frsb                               0x0804b21a   Section       20  faddsub_clz.o(x$fpl$frsb)
    x$fpl$fsub                               0x0804b230   Section      234  faddsub_clz.o(x$fpl$fsub)
    _fsub1                                   0x0804b23f   Thumb Code     0  faddsub_clz.o(x$fpl$fsub)
    x$fpl$ieeestatus                         0x0804b31a   Section        6  istatus.o(x$fpl$ieeestatus)
    x$fpl$printf1                            0x0804b320   Section        4  printf1.o(x$fpl$printf1)
    x$fpl$retnan                             0x0804b324   Section      100  retnan.o(x$fpl$retnan)
    x$fpl$scalbn                             0x0804b388   Section       92  scalbn.o(x$fpl$scalbn)
    x$fpl$scanf1                             0x0804b3e4   Section        4  scanf1.o(x$fpl$scanf1)
    x$fpl$scanf2                             0x0804b3e8   Section        8  scanf2.o(x$fpl$scanf2)
    x$fpl$trapveneer                         0x0804b3f0   Section       48  trapv.o(x$fpl$trapveneer)
    .constdata                               0x0804b420   Section       28  cdv_config.o(.constdata)
    x$fpl$usenofp                            0x0804b420   Section        0  usenofp.o(x$fpl$usenofp)
    __FUNCTION__                             0x0804b420   Data           7  cdv_config.o(.constdata)
    __FUNCTION__                             0x0804b427   Data          13  cdv_config.o(.constdata)
    __FUNCTION__                             0x0804b434   Data           8  cdv_config.o(.constdata)
    .constdata                               0x0804b43c   Section       17  offline.o(.constdata)
    __FUNCTION__                             0x0804b43c   Data           9  offline.o(.constdata)
    __FUNCTION__                             0x0804b445   Data           8  offline.o(.constdata)
    .constdata                               0x0804b44d   Section       16  fpga_spi.o(.constdata)
    __FUNCTION__                             0x0804b44d   Data           8  fpga_spi.o(.constdata)
    __FUNCTION__                             0x0804b455   Data           8  fpga_spi.o(.constdata)
    .constdata                               0x0804b45d   Section      555  mainuart.o(.constdata)
    __FUNCTION__                             0x0804b65d   Data          12  mainuart.o(.constdata)
    __FUNCTION__                             0x0804b669   Data          15  mainuart.o(.constdata)
    __FUNCTION__                             0x0804b678   Data          10  mainuart.o(.constdata)
    __FUNCTION__                             0x0804b682   Data           6  mainuart.o(.constdata)
    .constdata                               0x0804b688   Section       86  log.o(.constdata)
    __FUNCTION__                             0x0804b688   Data          14  log.o(.constdata)
    __FUNCTION__                             0x0804b696   Data          16  log.o(.constdata)
    __FUNCTION__                             0x0804b6a6   Data          13  log.o(.constdata)
    __FUNCTION__                             0x0804b6b3   Data          10  log.o(.constdata)
    .constdata                               0x0804b6de   Section      129  cdv_array.o(.constdata)
    __FUNCTION__                             0x0804b6de   Data          11  cdv_array.o(.constdata)
    __FUNCTION__                             0x0804b6e9   Data           9  cdv_array.o(.constdata)
    __FUNCTION__                             0x0804b6f2   Data          12  cdv_array.o(.constdata)
    __FUNCTION__                             0x0804b6fe   Data          12  cdv_array.o(.constdata)
    __FUNCTION__                             0x0804b70a   Data           9  cdv_array.o(.constdata)
    __FUNCTION__                             0x0804b713   Data          13  cdv_array.o(.constdata)
    __FUNCTION__                             0x0804b720   Data          13  cdv_array.o(.constdata)
    __FUNCTION__                             0x0804b72d   Data          12  cdv_array.o(.constdata)
    __FUNCTION__                             0x0804b739   Data          12  cdv_array.o(.constdata)
    __FUNCTION__                             0x0804b745   Data          15  cdv_array.o(.constdata)
    __FUNCTION__                             0x0804b754   Data          11  cdv_array.o(.constdata)
    .constdata                               0x0804b75f   Section       14  newscript.o(.constdata)
    __FUNCTION__                             0x0804b75f   Data          14  newscript.o(.constdata)
    .constdata                               0x0804b76d   Section      303  modbus.o(.constdata)
    __FUNCTION__                             0x0804b76d   Data           9  modbus.o(.constdata)
    __FUNCTION__                             0x0804b776   Data          10  modbus.o(.constdata)
    __FUNCTION__                             0x0804b780   Data          17  modbus.o(.constdata)
    __FUNCTION__                             0x0804b791   Data          22  modbus.o(.constdata)
    __FUNCTION__                             0x0804b7a7   Data          16  modbus.o(.constdata)
    __FUNCTION__                             0x0804b7b7   Data          18  modbus.o(.constdata)
    __FUNCTION__                             0x0804b7c9   Data          13  modbus.o(.constdata)
    __FUNCTION__                             0x0804b7d6   Data          18  modbus.o(.constdata)
    __FUNCTION__                             0x0804b7e8   Data          14  modbus.o(.constdata)
    __FUNCTION__                             0x0804b7f6   Data          12  modbus.o(.constdata)
    __FUNCTION__                             0x0804b802   Data          15  modbus.o(.constdata)
    __FUNCTION__                             0x0804b811   Data          17  modbus.o(.constdata)
    __FUNCTION__                             0x0804b822   Data          19  modbus.o(.constdata)
    __FUNCTION__                             0x0804b835   Data          21  modbus.o(.constdata)
    __FUNCTION__                             0x0804b84a   Data          16  modbus.o(.constdata)
    __FUNCTION__                             0x0804b85a   Data          20  modbus.o(.constdata)
    __FUNCTION__                             0x0804b86e   Data          21  modbus.o(.constdata)
    __FUNCTION__                             0x0804b883   Data          25  modbus.o(.constdata)
    .constdata                               0x0804b89c   Section       74  worker.o(.constdata)
    __FUNCTION__                             0x0804b89c   Data          12  worker.o(.constdata)
    __FUNCTION__                             0x0804b8a8   Data          16  worker.o(.constdata)
    __FUNCTION__                             0x0804b8b8   Data          12  worker.o(.constdata)
    __FUNCTION__                             0x0804b8c4   Data          18  worker.o(.constdata)
    __FUNCTION__                             0x0804b8d6   Data          16  worker.o(.constdata)
    .constdata                               0x0804b8e6   Section       10  cmdparse.o(.constdata)
    __FUNCTION__                             0x0804b8e6   Data          10  cmdparse.o(.constdata)
    .constdata                               0x0804b8f0   Section      483  cascade.o(.constdata)
    __FUNCTION__                             0x0804b8f0   Data          21  cascade.o(.constdata)
    __FUNCTION__                             0x0804b905   Data          20  cascade.o(.constdata)
    __FUNCTION__                             0x0804b919   Data          21  cascade.o(.constdata)
    __FUNCTION__                             0x0804b92e   Data          20  cascade.o(.constdata)
    __FUNCTION__                             0x0804b942   Data          18  cascade.o(.constdata)
    __FUNCTION__                             0x0804b954   Data          13  cascade.o(.constdata)
    __FUNCTION__                             0x0804b961   Data          12  cascade.o(.constdata)
    __FUNCTION__                             0x0804b96d   Data          11  cascade.o(.constdata)
    __FUNCTION__                             0x0804b978   Data          10  cascade.o(.constdata)
    __FUNCTION__                             0x0804b982   Data           9  cascade.o(.constdata)
    __FUNCTION__                             0x0804b98b   Data          12  cascade.o(.constdata)
    __FUNCTION__                             0x0804b997   Data          13  cascade.o(.constdata)
    __FUNCTION__                             0x0804b9a4   Data          13  cascade.o(.constdata)
    __FUNCTION__                             0x0804b9b1   Data          10  cascade.o(.constdata)
    __FUNCTION__                             0x0804b9bb   Data          11  cascade.o(.constdata)
    __FUNCTION__                             0x0804b9c6   Data          11  cascade.o(.constdata)
    __FUNCTION__                             0x0804b9d1   Data          11  cascade.o(.constdata)
    __FUNCTION__                             0x0804b9dc   Data           8  cascade.o(.constdata)
    __FUNCTION__                             0x0804b9e4   Data          23  cascade.o(.constdata)
    __FUNCTION__                             0x0804b9fb   Data          22  cascade.o(.constdata)
    __FUNCTION__                             0x0804ba11   Data          25  cascade.o(.constdata)
    __FUNCTION__                             0x0804ba2a   Data          24  cascade.o(.constdata)
    __FUNCTION__                             0x0804ba42   Data          24  cascade.o(.constdata)
    __FUNCTION__                             0x0804ba5a   Data          23  cascade.o(.constdata)
    __FUNCTION__                             0x0804ba71   Data          26  cascade.o(.constdata)
    __FUNCTION__                             0x0804ba8b   Data          25  cascade.o(.constdata)
    __FUNCTION__                             0x0804baa4   Data          24  cascade.o(.constdata)
    __FUNCTION__                             0x0804babc   Data          23  cascade.o(.constdata)
    .constdata                               0x0804bad3   Section       40  tcp_server.o(.constdata)
    __FUNCTION__                             0x0804bad3   Data          19  tcp_server.o(.constdata)
    __FUNCTION__                             0x0804bae6   Data          21  tcp_server.o(.constdata)
    .constdata                               0x0804bafb   Section        7  logic.o(.constdata)
    __FUNCTION__                             0x0804bafb   Data           7  logic.o(.constdata)
    .constdata                               0x0804bb02   Section      204  var.o(.constdata)
    __FUNCTION__                             0x0804bb02   Data           7  var.o(.constdata)
    __FUNCTION__                             0x0804bb09   Data           7  var.o(.constdata)
    __FUNCTION__                             0x0804bb10   Data          12  var.o(.constdata)
    __FUNCTION__                             0x0804bb1c   Data          11  var.o(.constdata)
    __FUNCTION__                             0x0804bb27   Data          11  var.o(.constdata)
    __FUNCTION__                             0x0804bb32   Data          12  var.o(.constdata)
    __FUNCTION__                             0x0804bb3e   Data           7  var.o(.constdata)
    __FUNCTION__                             0x0804bb45   Data           7  var.o(.constdata)
    __FUNCTION__                             0x0804bb4c   Data           7  var.o(.constdata)
    __FUNCTION__                             0x0804bb53   Data           7  var.o(.constdata)
    __FUNCTION__                             0x0804bb5a   Data           7  var.o(.constdata)
    __FUNCTION__                             0x0804bb61   Data           6  var.o(.constdata)
    __FUNCTION__                             0x0804bb67   Data           7  var.o(.constdata)
    __FUNCTION__                             0x0804bb6e   Data           7  var.o(.constdata)
    __FUNCTION__                             0x0804bb75   Data           7  var.o(.constdata)
    __FUNCTION__                             0x0804bb7c   Data          10  var.o(.constdata)
    __FUNCTION__                             0x0804bb86   Data           7  var.o(.constdata)
    __FUNCTION__                             0x0804bb8d   Data          11  var.o(.constdata)
    __FUNCTION__                             0x0804bb98   Data          11  var.o(.constdata)
    __FUNCTION__                             0x0804bba3   Data          14  var.o(.constdata)
    __FUNCTION__                             0x0804bbb1   Data          11  var.o(.constdata)
    __FUNCTION__                             0x0804bbbc   Data           7  var.o(.constdata)
    __FUNCTION__                             0x0804bbc3   Data          11  var.o(.constdata)
    .constdata                               0x0804bbce   Section       21  universalscom.o(.constdata)
    __FUNCTION__                             0x0804bbce   Data          21  universalscom.o(.constdata)
    .constdata                               0x0804bbe4   Section       16  alarm.o(.constdata)
    .constdata                               0x0804bbf4   Section       36  varexp.o(.constdata)
    __FUNCTION__                             0x0804bbf4   Data          12  varexp.o(.constdata)
    __FUNCTION__                             0x0804bc00   Data          11  varexp.o(.constdata)
    __FUNCTION__                             0x0804bc0b   Data          13  varexp.o(.constdata)
    .constdata                               0x0804bc18   Section       14  memmng.o(.constdata)
    __FUNCTION__                             0x0804bc18   Data          14  memmng.o(.constdata)
    .constdata                               0x0804bc26   Section       14  spix.o(.constdata)
    __FUNCTION__                             0x0804bc26   Data          14  spix.o(.constdata)
    .constdata                               0x0804bc34   Section       10  spi3.o(.constdata)
    __FUNCTION__                             0x0804bc34   Data          10  spi3.o(.constdata)
    .constdata                               0x0804bc3e   Section       58  uartx.o(.constdata)
    __FUNCTION__                             0x0804bc3e   Data          16  uartx.o(.constdata)
    __FUNCTION__                             0x0804bc4e   Data          15  uartx.o(.constdata)
    __FUNCTION__                             0x0804bc5d   Data           9  uartx.o(.constdata)
    __FUNCTION__                             0x0804bc66   Data          10  uartx.o(.constdata)
    __FUNCTION__                             0x0804bc70   Data           8  uartx.o(.constdata)
    .constdata                               0x0804bc78   Section       34  lan8720.o(.constdata)
    __FUNCTION__                             0x0804bc78   Data          19  lan8720.o(.constdata)
    __FUNCTION__                             0x0804bc8b   Data          15  lan8720.o(.constdata)
    .constdata                               0x0804bc9c   Section       28  stm32f4xx_fsmc.o(.constdata)
    .constdata                               0x0804bcb8   Section      256  cpu_core.o(.constdata)
    CPU_CntLeadZerosTbl                      0x0804bcb8   Data         256  cpu_core.o(.constdata)
    .constdata                               0x0804bdb8   Section      148  lib_str.o(.constdata)
    Str_MultOvfThTbl_Int32U                  0x0804bdb8   Data         148  lib_str.o(.constdata)
    .constdata                               0x0804be4c   Section      164  os_cfg_app.o(.constdata)
    .constdata                               0x0804bef0   Section       36  malloc.o(.constdata)
    .constdata                               0x0804bf14   Section        4  sys_arch.o(.constdata)
    .constdata                               0x0804bf18   Section       12  etharp.o(.constdata)
    .constdata                               0x0804bf24   Section       56  memp.o(.constdata)
    memp_sizes                               0x0804bf24   Data          28  memp.o(.constdata)
    memp_num                                 0x0804bf40   Data          28  memp.o(.constdata)
    .constdata                               0x0804bf5c   Section       80  tcp.o(.constdata)
    .constdata                               0x0804bfac   Section        8  ip_addr.o(.constdata)
    .constdata                               0x0804bfb4   Section       10  lwip_comm.o(.constdata)
    __FUNCTION__                             0x0804bfb4   Data          10  lwip_comm.o(.constdata)
    .constdata                               0x0804bfc0   Section    52336  fs.o(.constdata)
    data__STM32F4x7_files_logo_jpg           0x0804bfc0   Data        3159  fs.o(.constdata)
    data__STM32F4x7_files_ST_gif             0x0804cc17   Data        2746  fs.o(.constdata)
    data__STM32F4x7_files_stm32_jpg          0x0804d6d1   Data       26205  fs.o(.constdata)
    data__404_html                           0x08053d2e   Data        1243  fs.o(.constdata)
    data__index_html                         0x08054209   Data       10723  fs.o(.constdata)
    data__STM32F4x7ADC_shtml                 0x08056bec   Data        4046  fs.o(.constdata)
    data__STM32F4x7LED_html                  0x08057bba   Data        4072  fs.o(.constdata)
    .constdata                               0x08058c30   Section       48  httpd.o(.constdata)
    .constdata                               0x08058c60   Section        8  httpd_cgi_ssi.o(.constdata)
    .constdata                               0x08058c68   Section       40  _printf_hex_int.o(.constdata)
    uc_hextab                                0x08058c68   Data          20  _printf_hex_int.o(.constdata)
    lc_hextab                                0x08058c7c   Data          20  _printf_hex_int.o(.constdata)
    .constdata                               0x08058c90   Section       17  __printf_flags_ss_wp.o(.constdata)
    maptable                                 0x08058c90   Data          17  __printf_flags_ss_wp.o(.constdata)
    .constdata                               0x08058ca4   Section      148  bigflt0.o(.constdata)
    tenpwrs_x                                0x08058ca4   Data          60  bigflt0.o(.constdata)
    tenpwrs_i                                0x08058ce0   Data          64  bigflt0.o(.constdata)
    .conststring                             0x08058d38   Section      158  cdv_define.o(.conststring)
    .conststring                             0x08058dd8   Section       84  worker.o(.conststring)
    .conststring                             0x08058e2c   Section      117  tcp.o(.conststring)
    .conststring                             0x08058ea4   Section      106  httpd.o(.conststring)
    .conststring                             0x08058f10   Section       14  httpd_cgi_ssi.o(.conststring)
    c$$dinf                                  0x08058f40   Section        8  fpconst.o(c$$dinf)
    c$$dmax                                  0x08058f48   Section        8  fpconst.o(c$$dmax)
    locale$$data                             0x08058f50   Section      272  lc_ctype_c.o(locale$$data)
    __lcctype_c_name                         0x08058f54   Data           2  lc_ctype_c.o(locale$$data)
    __lcctype_c_start                        0x08058f5c   Data           0  lc_ctype_c.o(locale$$data)
    locale$$data                             0x08059060   Section       28  lc_numeric_c.o(locale$$data)
    __lcctype_c_end                          0x08059060   Data           0  lc_ctype_c.o(locale$$data)
    __lcnum_c_name                           0x08059064   Data           2  lc_numeric_c.o(locale$$data)
    __lcnum_c_start                          0x0805906c   Data           0  lc_numeric_c.o(locale$$data)
    __lcnum_c_point                          0x08059078   Data           0  lc_numeric_c.o(locale$$data)
    __lcnum_c_thousands                      0x0805907a   Data           0  lc_numeric_c.o(locale$$data)
    __lcnum_c_grouping                       0x0805907b   Data           0  lc_numeric_c.o(locale$$data)
    __lcnum_c_end                            0x0805907c   Data           0  lc_numeric_c.o(locale$$data)
    .ARM.__AT_0x10000000                     0x10000000   Section    32768  malloc.o(.ARM.__AT_0x10000000)
    .ARM.__AT_0x10008000                     0x10008000   Section     2048  malloc.o(.ARM.__AT_0x10008000)
    .ARM.__AT_0x10009000                     0x10009000   Section    28672  malloc.o(.ARM.__AT_0x10009000)
    .data                                    0x20000000   Section        8  main.o(.data)
    cnt                                      0x20000004   Data           4  main.o(.data)
    .data                                    0x20000008   Section        4  cdv_config.o(.data)
    isInited                                 0x2000000b   Data           1  cdv_config.o(.data)
    .data                                    0x2000000c   Section      100  cdv_define.o(.data)
    .data                                    0x20000070   Section        8  offline.o(.data)
    .data                                    0x20000078   Section        7  fpga_spi.o(.data)
    .data                                    0x20000080   Section      481  mainuart.o(.data)
    .data                                    0x20000264   Section        4  cdv_array.o(.data)
    list_test_on                             0x20000264   Data           4  cdv_array.o(.data)
    .data                                    0x20000268   Section       36  worker.o(.data)
    .data                                    0x2000028c   Section       53  cascade.o(.data)
    .data                                    0x200002c4   Section       28  tcp_server.o(.data)
    connected                                0x200002d8   Data           1  tcp_server.o(.data)
    ipaddr                                   0x200002dc   Data           4  tcp_server.o(.data)
    .data                                    0x200002e0   Section        1  udpmain.o(.data)
    .data                                    0x200002e4   Section       12  io.o(.data)
    .data                                    0x200002f0   Section        4  var.o(.data)
    .data                                    0x200002f4   Section        4  msg.o(.data)
    .data                                    0x200002f8   Section       32  time.o(.data)
    .data                                    0x20000318   Section        4  adc.o(.data)
    .data                                    0x2000031c   Section       36  dac.o(.data)
    .data                                    0x20000340   Section        5  alarm.o(.data)
    .data                                    0x20000348   Section       14  memmng.o(.data)
    allocd                                   0x2000034c   Data           4  memmng.o(.data)
    used                                     0x20000350   Data           4  memmng.o(.data)
    perused                                  0x20000354   Data           1  memmng.o(.data)
    onon2                                    0x20000355   Data           1  memmng.o(.data)
    .data                                    0x20000358   Section        6  uart1.o(.data)
    .data                                    0x20000360   Section        6  uart2.o(.data)
    .data                                    0x20000368   Section       10  uart3.o(.data)
    .data                                    0x20000374   Section       16  uart4.o(.data)
    .data                                    0x20000384   Section       10  uart5.o(.data)
    .data                                    0x20000390   Section       24  uart6.o(.data)
    .data                                    0x200003a8   Section        7  spi3.o(.data)
    .data                                    0x200003b0   Section       72  uartx.o(.data)
    .data                                    0x200003f8   Section       28  lan8720.o(.data)
    isethactive                              0x20000410   Data           4  lan8720.o(.data)
    .data                                    0x20000414   Section       20  system_stm32f4xx.o(.data)
    .data                                    0x20000428   Section       16  stm32f4xx_rcc.o(.data)
    APBAHBPrescTable                         0x20000428   Data          16  stm32f4xx_rcc.o(.data)
    .data                                    0x20000438   Section       16  stm32f4x7_eth.o(.data)
    .data                                    0x20000448   Section        4  cpu_core.o(.data)
    .data                                    0x2000044c   Section        4  lib_mem.o(.data)
    .data                                    0x20000450   Section        8  os_prio.o(.data)
    .data                                    0x20000458   Section       72  os_var.o(.data)
    .data                                    0x200004a0   Section        4  os_cpu_c.o(.data)
    .data                                    0x200004a4   Section       24  delay.o(.data)
    fac_us                                   0x200004b4   Data           1  delay.o(.data)
    fac_ms                                   0x200004b6   Data           2  delay.o(.data)
    .data                                    0x200004bc   Section        5  flash.o(.data)
    .data                                    0x200004c4   Section       36  malloc.o(.data)
    .data                                    0x200004e8   Section        1  etharp.o(.data)
    etharp_cached_entry                      0x200004e8   Data           1  etharp.o(.data)
    .data                                    0x200004ec   Section        8  tcpip.o(.data)
    tcpip_init_done                          0x200004ec   Data           4  tcpip.o(.data)
    tcpip_init_done_arg                      0x200004f0   Data           4  tcpip.o(.data)
    .data                                    0x200004f4   Section       12  mem.o(.data)
    ram                                      0x200004f4   Data           4  mem.o(.data)
    ram_end                                  0x200004f8   Data           4  mem.o(.data)
    lfree                                    0x200004fc   Data           4  mem.o(.data)
    .data                                    0x20000500   Section        9  netif.o(.data)
    netif_num                                0x20000508   Data           1  netif.o(.data)
    .data                                    0x2000050c   Section        4  raw.o(.data)
    raw_pcbs                                 0x2000050c   Data           4  raw.o(.data)
    .data                                    0x20000510   Section       36  tcp.o(.data)
    tcp_port                                 0x20000510   Data           2  tcp.o(.data)
    tcp_timer                                0x2000052d   Data           1  tcp.o(.data)
    tcp_timer_ctr                            0x2000052e   Data           1  tcp.o(.data)
    iss                                      0x20000530   Data           4  tcp.o(.data)
    .data                                    0x20000534   Section       32  tcp_in.o(.data)
    tcphdr                                   0x20000534   Data           4  tcp_in.o(.data)
    iphdr                                    0x20000538   Data           4  tcp_in.o(.data)
    seqno                                    0x2000053c   Data           4  tcp_in.o(.data)
    ackno                                    0x20000540   Data           4  tcp_in.o(.data)
    flags                                    0x20000544   Data           1  tcp_in.o(.data)
    tcplen                                   0x20000546   Data           2  tcp_in.o(.data)
    recv_flags                               0x20000548   Data           1  tcp_in.o(.data)
    recv_data                                0x2000054c   Data           4  tcp_in.o(.data)
    .data                                    0x20000554   Section        8  timers.o(.data)
    next_timeout                             0x20000554   Data           4  timers.o(.data)
    tcpip_tcp_timer_active                   0x20000558   Data           4  timers.o(.data)
    .data                                    0x2000055c   Section        8  udp.o(.data)
    udp_port                                 0x2000055c   Data           2  udp.o(.data)
    .data                                    0x20000564   Section       18  ip.o(.data)
    ip_id                                    0x20000574   Data           2  ip.o(.data)
    .data                                    0x20000578   Section        6  ip_frag.o(.data)
    reassdatagrams                           0x20000578   Data           4  ip_frag.o(.data)
    ip_reass_pbufcount                       0x2000057c   Data           2  ip_frag.o(.data)
    .data                                    0x20000580   Section       12  lwip_comm.o(.data)
    cntpacket                                0x20000588   Data           4  lwip_comm.o(.data)
    .data                                    0x2000058c   Section       36  httpd.o(.data)
    .data                                    0x200005b0   Section       24  httpd_cgi_ssi.o(.data)
    .bss                                     0x200005c8   Section     4608  main.o(.bss)
    .bss                                     0x200017c8   Section    31072  cdv_define.o(.bss)
    .bss                                     0x20009128   Section     1020  mainuart.o(.bss)
    .bss                                     0x20009524   Section      104  log.o(.bss)
    .bss                                     0x2000958c   Section       44  newscript.o(.bss)
    .bss                                     0x200095b8   Section     1728  modbus.o(.bss)
    .bss                                     0x20009c78   Section      592  worker.o(.bss)
    .bss                                     0x20009ec8   Section     5772  cascade.o(.bss)
    .bss                                     0x2000b554   Section     2568  tcp_server.o(.bss)
    .bss                                     0x2000bf5c   Section      684  udpmain.o(.bss)
    .bss                                     0x2000c208   Section      420  io.o(.bss)
    .bss                                     0x2000c3ac   Section     1744  adc.o(.bss)
    .bss                                     0x2000ca7c   Section      176  dac.o(.bss)
    .bss                                     0x2000cb2c   Section      400  alarm.o(.bss)
    .bss                                     0x2000ccbc   Section      255  uart3.o(.bss)
    .bss                                     0x2000cdbb   Section       32  uart4.o(.bss)
    .bss                                     0x2000cddb   Section       16  uart5.o(.bss)
    .bss                                     0x2000cdeb   Section      256  spi3.o(.bss)
    .bss                                     0x2000ceec   Section      188  lan8720.o(.bss)
    .bss                                     0x2000cfa8   Section       12  stm32f4x7_eth.o(.bss)
    .bss                                     0x2000cfb4   Section       16  cpu_core.o(.bss)
    .bss                                     0x2000cfc4   Section     1096  lib_mem.o(.bss)
    .bss                                     0x2000d40c   Section     3920  os_cfg_app.o(.bss)
    .bss                                     0x2000e35c   Section     1296  os_var.o(.bss)
    .bss                                     0x2000e86c   Section      160  delay.o(.bss)
    .bss                                     0x2000e90c   Section      172  sys_arch.o(.bss)
    .bss                                     0x2000e9b8   Section      200  etharp.o(.bss)
    arp_table                                0x2000e9b8   Data         200  etharp.o(.bss)
    .bss                                     0x2000ea80   Section       36  tcpip.o(.bss)
    mbox                                     0x2000ea80   Data          36  tcpip.o(.bss)
    .bss                                     0x2000eaa4   Section     4848  mem.o(.bss)
    mem_mutex                                0x2000fd78   Data          28  mem.o(.bss)
    .bss                                     0x2000fd94   Section    10035  memp.o(.bss)
    memp_tab                                 0x2000fd94   Data          56  memp.o(.bss)
    memp_memory                              0x2000fdcc   Data        9979  memp.o(.bss)
    .bss                                     0x200124c8   Section       16  tcp_in.o(.bss)
    inseg                                    0x200124c8   Data          16  tcp_in.o(.bss)
    .bss                                     0x200124d8   Section       16  ip_addr.o(.bss)
    str                                      0x200124d8   Data          16  ip_addr.o(.bss)
    .bss                                     0x200124e8   Section      248  lwip_comm.o(.bss)
    .bss                                     0x200125e0   Section      240  fs.o(.bss)
    .bss                                     0x200126d0   Section     1024  httpd.o(.bss)
    httpd_req_buf                            0x200126d0   Data        1024  httpd.o(.bss)
    .bss                                     0x20012ad0   Section       96  libspace.o(.bss)
    HEAP                                     0x20012b30   Section    49152  startup_stm32f40_41xxx.o(HEAP)
    Heap_Mem                                 0x20012b30   Data       49152  startup_stm32f40_41xxx.o(HEAP)
    STACK                                    0x2001eb30   Section     4096  startup_stm32f40_41xxx.o(STACK)
    Stack_Mem                                0x2001eb30   Data        4096  startup_stm32f40_41xxx.o(STACK)
    __initial_sp                             0x2001fb30   Data           0  startup_stm32f40_41xxx.o(STACK)
    .ARM.__AT_0x68000000                     0x68000000   Section    786432  memmng.o(.ARM.__AT_0x68000000)
    .ARM.__AT_0x680C0000                     0x680c0000   Section    196608  memmng.o(.ARM.__AT_0x680C0000)

    Global Symbols

    Symbol Name                              Value     Ov Type        Size  Object(Section)

    BuildAttributes$$THM_ISAv4$E$P$D$K$B$S$7EM$PE$A:L22UL41UL21$X:L11$S22US41US21$IEEE1$IW$USESV6$~STKCKD$USESV7$~SHL$OTIME$ROPI$IEEEX$EBA8$UX$STANDARDLIB$REQ8$PRES8$EABIv2 0x00000000   Number         0  anon$$obj.o ABSOLUTE
    __ARM_use_no_argv                        0x00000000   Number         0  main.o ABSOLUTE
    _printf_flags                            0x00000000   Number         0  printf_stubs.o ABSOLUTE
    _printf_return_value                     0x00000000   Number         0  printf_stubs.o ABSOLUTE
    _printf_sizespec                         0x00000000   Number         0  printf_stubs.o ABSOLUTE
    _printf_widthprec                        0x00000000   Number         0  printf_stubs.o ABSOLUTE
    __ARM_exceptions_init                     - Undefined Weak Reference
    __alloca_initialize                       - Undefined Weak Reference
    __arm_preinit_                            - Undefined Weak Reference
    __cpp_initialize__aeabi_                  - Undefined Weak Reference
    __cxa_finalize                            - Undefined Weak Reference
    __sigvec_lookup                           - Undefined Weak Reference
    __user_heap_extent                        - Undefined Weak Reference
    _atexit_init                              - Undefined Weak Reference
    _call_atexit_fns                          - Undefined Weak Reference
    _clock_init                               - Undefined Weak Reference
    _fp_trap_init                             - Undefined Weak Reference
    _fp_trap_shutdown                         - Undefined Weak Reference
    _get_lc_collate                           - Undefined Weak Reference
    _get_lc_monetary                          - Undefined Weak Reference
    _get_lc_time                              - Undefined Weak Reference
    _getenv_init                              - Undefined Weak Reference
    _handle_redirection                       - Undefined Weak Reference
    _initio                                   - Undefined Weak Reference
    _mutex_acquire                            - Undefined Weak Reference
    _mutex_free                               - Undefined Weak Reference
    _mutex_release                            - Undefined Weak Reference
    _printf_mbtowc                            - Undefined Weak Reference
    _printf_truncate_signed                   - Undefined Weak Reference
    _printf_truncate_unsigned                 - Undefined Weak Reference
    _rand_init                                - Undefined Weak Reference
    _signal_finish                            - Undefined Weak Reference
    _signal_init                              - Undefined Weak Reference
    _terminateio                              - Undefined Weak Reference
    __Vectors_Size                           0x00000188   Number         0  startup_stm32f40_41xxx.o ABSOLUTE
    __Vectors                                0x08020000   Data           4  startup_stm32f40_41xxx.o(RESET)
    __Vectors_End                            0x08020188   Data           0  startup_stm32f40_41xxx.o(RESET)
    __main                                   0x08020189   Thumb Code     8  __main.o(!!!main)
    __scatterload                            0x08020191   Thumb Code     0  __scatter.o(!!!scatter)
    __scatterload_rt2                        0x08020191   Thumb Code    44  __scatter.o(!!!scatter)
    __scatterload_rt2_thumb_only             0x08020191   Thumb Code     0  __scatter.o(!!!scatter)
    __scatterload_null                       0x0802019f   Thumb Code     0  __scatter.o(!!!scatter)
    __decompress                             0x080201c5   Thumb Code    90  __dczerorl2.o(!!dczerorl2)
    __decompress1                            0x080201c5   Thumb Code     0  __dczerorl2.o(!!dczerorl2)
    __scatterload_zeroinit                   0x08020221   Thumb Code    28  __scatter_zi.o(!!handler_zi)
    _printf_f                                0x0802023d   Thumb Code     0  _printf_f.o(.ARM.Collect$$_printf_percent$$00000003)
    _printf_percent                          0x0802023d   Thumb Code     0  _printf_percent.o(.ARM.Collect$$_printf_percent$$00000000)
    _printf_d                                0x08020243   Thumb Code     0  _printf_d.o(.ARM.Collect$$_printf_percent$$00000009)
    _printf_x                                0x08020249   Thumb Code     0  _printf_x.o(.ARM.Collect$$_printf_percent$$0000000C)
    _printf_s                                0x0802024f   Thumb Code     0  _printf_s.o(.ARM.Collect$$_printf_percent$$00000014)
    _printf_percent_end                      0x08020255   Thumb Code     0  _printf_percent_end.o(.ARM.Collect$$_printf_percent$$00000017)
    __rt_lib_init                            0x08020259   Thumb Code     0  libinit.o(.ARM.Collect$$libinit$$00000000)
    __rt_lib_init_fp_1                       0x0802025b   Thumb Code     0  libinit2.o(.ARM.Collect$$libinit$$00000002)
    __rt_lib_init_heap_2                     0x0802025b   Thumb Code     0  libinit2.o(.ARM.Collect$$libinit$$00000005)
    __rt_lib_init_preinit_1                  0x0802025b   Thumb Code     0  libinit2.o(.ARM.Collect$$libinit$$00000004)
    __rt_lib_init_heap_1                     0x08020263   Thumb Code     0  libinit2.o(.ARM.Collect$$libinit$$0000000A)
    __rt_lib_init_lc_common                  0x08020263   Thumb Code     0  libinit2.o(.ARM.Collect$$libinit$$0000000F)
    __rt_lib_init_rand_1                     0x08020263   Thumb Code     0  libinit2.o(.ARM.Collect$$libinit$$0000000E)
    __rt_lib_init_user_alloc_1               0x08020263   Thumb Code     0  libinit2.o(.ARM.Collect$$libinit$$0000000C)
    __rt_lib_init_lc_collate_1               0x08020269   Thumb Code     0  libinit2.o(.ARM.Collect$$libinit$$00000011)
    __rt_lib_init_lc_ctype_2                 0x08020269   Thumb Code     0  libinit2.o(.ARM.Collect$$libinit$$00000012)
    __rt_lib_init_lc_ctype_1                 0x08020275   Thumb Code     0  libinit2.o(.ARM.Collect$$libinit$$00000013)
    __rt_lib_init_lc_monetary_1              0x08020275   Thumb Code     0  libinit2.o(.ARM.Collect$$libinit$$00000015)
    __rt_lib_init_lc_numeric_2               0x08020275   Thumb Code     0  libinit2.o(.ARM.Collect$$libinit$$00000016)
    __rt_lib_init_alloca_1                   0x0802027f   Thumb Code     0  libinit2.o(.ARM.Collect$$libinit$$0000002E)
    __rt_lib_init_argv_1                     0x0802027f   Thumb Code     0  libinit2.o(.ARM.Collect$$libinit$$0000002C)
    __rt_lib_init_atexit_1                   0x0802027f   Thumb Code     0  libinit2.o(.ARM.Collect$$libinit$$0000001B)
    __rt_lib_init_clock_1                    0x0802027f   Thumb Code     0  libinit2.o(.ARM.Collect$$libinit$$00000021)
    __rt_lib_init_cpp_1                      0x0802027f   Thumb Code     0  libinit2.o(.ARM.Collect$$libinit$$00000032)
    __rt_lib_init_exceptions_1               0x0802027f   Thumb Code     0  libinit2.o(.ARM.Collect$$libinit$$00000030)
    __rt_lib_init_fp_trap_1                  0x0802027f   Thumb Code     0  libinit2.o(.ARM.Collect$$libinit$$0000001F)
    __rt_lib_init_getenv_1                   0x0802027f   Thumb Code     0  libinit2.o(.ARM.Collect$$libinit$$00000023)
    __rt_lib_init_lc_numeric_1               0x0802027f   Thumb Code     0  libinit2.o(.ARM.Collect$$libinit$$00000017)
    __rt_lib_init_lc_time_1                  0x0802027f   Thumb Code     0  libinit2.o(.ARM.Collect$$libinit$$00000019)
    __rt_lib_init_return                     0x0802027f   Thumb Code     0  libinit2.o(.ARM.Collect$$libinit$$00000033)
    __rt_lib_init_signal_1                   0x0802027f   Thumb Code     0  libinit2.o(.ARM.Collect$$libinit$$0000001D)
    __rt_lib_init_stdio_1                    0x0802027f   Thumb Code     0  libinit2.o(.ARM.Collect$$libinit$$00000025)
    __rt_lib_shutdown                        0x08020281   Thumb Code     0  libshutdown.o(.ARM.Collect$$libshutdown$$00000000)
    __rt_lib_shutdown_cpp_1                  0x08020283   Thumb Code     0  libshutdown2.o(.ARM.Collect$$libshutdown$$00000002)
    __rt_lib_shutdown_fp_trap_1              0x08020283   Thumb Code     0  libshutdown2.o(.ARM.Collect$$libshutdown$$00000007)
    __rt_lib_shutdown_heap_1                 0x08020283   Thumb Code     0  libshutdown2.o(.ARM.Collect$$libshutdown$$0000000F)
    __rt_lib_shutdown_return                 0x08020283   Thumb Code     0  libshutdown2.o(.ARM.Collect$$libshutdown$$00000010)
    __rt_lib_shutdown_signal_1               0x08020283   Thumb Code     0  libshutdown2.o(.ARM.Collect$$libshutdown$$0000000A)
    __rt_lib_shutdown_stdio_1                0x08020283   Thumb Code     0  libshutdown2.o(.ARM.Collect$$libshutdown$$00000004)
    __rt_lib_shutdown_user_alloc_1           0x08020283   Thumb Code     0  libshutdown2.o(.ARM.Collect$$libshutdown$$0000000C)
    __rt_entry                               0x08020285   Thumb Code     0  __rtentry.o(.ARM.Collect$$rtentry$$00000000)
    __rt_entry_presh_1                       0x08020285   Thumb Code     0  __rtentry2.o(.ARM.Collect$$rtentry$$00000002)
    __rt_entry_sh                            0x08020285   Thumb Code     0  __rtentry4.o(.ARM.Collect$$rtentry$$00000004)
    __rt_entry_li                            0x0802028b   Thumb Code     0  __rtentry2.o(.ARM.Collect$$rtentry$$0000000A)
    __rt_entry_postsh_1                      0x0802028b   Thumb Code     0  __rtentry2.o(.ARM.Collect$$rtentry$$00000009)
    __rt_entry_main                          0x0802028f   Thumb Code     0  __rtentry2.o(.ARM.Collect$$rtentry$$0000000D)
    __rt_entry_postli_1                      0x0802028f   Thumb Code     0  __rtentry2.o(.ARM.Collect$$rtentry$$0000000C)
    __rt_exit                                0x08020297   Thumb Code     0  rtexit.o(.ARM.Collect$$rtexit$$00000000)
    __rt_exit_ls                             0x08020299   Thumb Code     0  rtexit2.o(.ARM.Collect$$rtexit$$00000003)
    __rt_exit_prels_1                        0x08020299   Thumb Code     0  rtexit2.o(.ARM.Collect$$rtexit$$00000002)
    __rt_exit_exit                           0x0802029d   Thumb Code     0  rtexit2.o(.ARM.Collect$$rtexit$$00000004)
    WFI_SET                                  0x080202a5   Thumb Code     2  sysdef.o(.emb_text)
    INTX_DISABLE                             0x080202a7   Thumb Code     4  sysdef.o(.emb_text)
    INTX_ENABLE                              0x080202ab   Thumb Code     4  sysdef.o(.emb_text)
    MSR_MSP                                  0x080202af   Thumb Code     6  sysdef.o(.emb_text)
    _maybe_terminate_alloc                   0x080202b5   Thumb Code     0  maybetermalloc1.o(.emb_text)
    worker_manage_task                       0x080202b5   Thumb Code   116  main.o(.text)
    cdv_refresh_task                         0x08020329   Thumb Code    38  main.o(.text)
    parse_task                               0x0802034f   Thumb Code   400  main.o(.text)
    usart_send_task                          0x080204df   Thumb Code    64  main.o(.text)
    usart_recv_task                          0x0802051f   Thumb Code   532  main.o(.text)
    tmr1_callback                            0x08020733   Thumb Code   152  main.o(.text)
    start_task                               0x080207cb   Thumb Code   580  main.o(.text)
    main                                     0x08020a0f   Thumb Code   166  main.o(.text)
    PeriphDriverInit                         0x08020cbd   Thumb Code   106  cdv_config.o(.text)
    ShutDown                                 0x08020d27   Thumb Code    32  cdv_config.o(.text)
    GetOnlyID                                0x08020d47   Thumb Code     6  cdv_config.o(.text)
    NewError                                 0x08020d4d   Thumb Code    60  cdv_config.o(.text)
    NewMemory                                0x08020d89   Thumb Code    78  cdv_config.o(.text)
    ReNewMemory                              0x08020dd7   Thumb Code    58  cdv_config.o(.text)
    DelMemory                                0x08020e11   Thumb Code    46  cdv_config.o(.text)
    DelayUS                                  0x08020e3f   Thumb Code    16  cdv_config.o(.text)
    assert                                   0x08020e4f   Thumb Code    84  cdv_config.o(.text)
    MemCpy                                   0x08020ea3   Thumb Code    94  cdv_config.o(.text)
    MemCpyUnsafe                             0x08020f01   Thumb Code    74  cdv_config.o(.text)
    MemMove                                  0x08020f4b   Thumb Code   114  cdv_config.o(.text)
    WhileError                               0x08020fbd   Thumb Code    60  cdv_config.o(.text)
    CDVParamInit                             0x08020ff9   Thumb Code    34  cdv_config.o(.text)
    SPI_Flash_Write_Check                    0x0802101b   Thumb Code    78  cdv_config.o(.text)
    com_print                                0x08021069   Thumb Code    24  cdv_config.o(.text)
    CmdArgInit                               0x08021115   Thumb Code    56  cdv_define.o(.text)
    CmdArgDelete                             0x0802114d   Thumb Code    46  cdv_define.o(.text)
    Mem_ReadLine                             0x0802117d   Thumb Code    82  offline.o(.text)
    Mem_TestCmdNum                           0x080211cf   Thumb Code    38  offline.o(.text)
    Mem_GetNextCmdPos                        0x080211f5   Thumb Code    18  offline.o(.text)
    Mem_GetNoFromPos                         0x08021207   Thumb Code    44  offline.o(.text)
    Mem_GetCmdPos                            0x08021233   Thumb Code    54  offline.o(.text)
    Mem_Read                                 0x08021269   Thumb Code    54  offline.o(.text)
    Mem_Read_Ptr                             0x0802129f   Thumb Code    10  offline.o(.text)
    Mem_Ptr                                  0x080212a9   Thumb Code    40  offline.o(.text)
    LineInit                                 0x080212d1   Thumb Code    32  offline.o(.text)
    CdvInit                                  0x08021319   Thumb Code    70  basic_resource.o(.text)
    ResParse                                 0x0802135f   Thumb Code   286  basic_resource.o(.text)
    VirtualMotorRun                          0x0802147d   Thumb Code     6  basic_resource.o(.text)
    ActualMotorRun                           0x08021483   Thumb Code     6  basic_resource.o(.text)
    CalculateForAll                          0x08021489   Thumb Code    32  basic_resource.o(.text)
    ResParaRequest                           0x080214a9   Thumb Code   100  basic_resource.o(.text)
    ResRequest2                              0x0802150d   Thumb Code    90  basic_resource.o(.text)
    ResRequest                               0x08021567   Thumb Code   142  basic_resource.o(.text)
    DoResRequest                             0x080215f5   Thumb Code    42  basic_resource.o(.text)
    DoSpecRequest                            0x0802161f   Thumb Code    42  basic_resource.o(.text)
    ResVarSet                                0x08021649   Thumb Code    92  basic_resource.o(.text)
    Fpga_Rx                                  0x080216b1   Thumb Code    44  fpga_spi.o(.text)
    Fpga_Tx                                  0x080216dd   Thumb Code    42  fpga_spi.o(.text)
    FpgaCS                                   0x08021707   Thumb Code   112  fpga_spi.o(.text)
    FpgaTR                                   0x08021777   Thumb Code    94  fpga_spi.o(.text)
    FpgaRead                                 0x080217d5   Thumb Code     2  fpga_spi.o(.text)
    FpgaWrite                                0x080217d7   Thumb Code     2  fpga_spi.o(.text)
    Send_parameter                           0x080217d9   Thumb Code    24  fpga_spi.o(.text)
    Read_Fpga_Regist                         0x080217f1   Thumb Code   100  fpga_spi.o(.text)
    FPGA_Send_parameter                      0x08021855   Thumb Code   154  fpga_spi.o(.text)
    FpgaMotoWait                             0x080218ef   Thumb Code    50  fpga_spi.o(.text)
    FpgaIRead                                0x08021921   Thumb Code   174  fpga_spi.o(.text)
    FpgaIReadAll                             0x080219cf   Thumb Code   118  fpga_spi.o(.text)
    FpgaORead                                0x08021a45   Thumb Code   246  fpga_spi.o(.text)
    FpgaOReadAll                             0x08021b3b   Thumb Code   118  fpga_spi.o(.text)
    FpgaOWriteAll                            0x08021bb1   Thumb Code   108  fpga_spi.o(.text)
    FpgaOWrite                               0x08021c1d   Thumb Code   140  fpga_spi.o(.text)
    MODBUS_CRC16                             0x08021cb1   Thumb Code    48  mainuart.o(.text)
    FpgaRecvInit                             0x08021ce1   Thumb Code    56  mainuart.o(.text)
    FpgaRecvDeinit                           0x08021d19   Thumb Code    50  mainuart.o(.text)
    ScriptRecvDeinit                         0x08021d4b   Thumb Code    40  mainuart.o(.text)
    ScriptRecvInit                           0x08021d73   Thumb Code    76  mainuart.o(.text)
    ScriptRecvCtl                            0x08021dbf   Thumb Code   396  mainuart.o(.text)
    FpgaRecvCtl                              0x08021f4b   Thumb Code    48  mainuart.o(.text)
    UsartTxAddWithLen                        0x08021f7b   Thumb Code    38  mainuart.o(.text)
    MAINUSART_Send                           0x08021fa1   Thumb Code   208  mainuart.o(.text)
    AddTxNoCrcPlus                           0x08022071   Thumb Code   200  mainuart.o(.text)
    CDVInfoSend                              0x08022139   Thumb Code   282  mainuart.o(.text)
    CDVUsartSend                             0x08022253   Thumb Code   178  mainuart.o(.text)
    OnlineCmdCache                           0x08022305   Thumb Code   104  mainuart.o(.text)
    getCRC16                                 0x0802236d   Thumb Code    62  mainuart.o(.text)
    RecvParse                                0x080223ab   Thumb Code  1128  mainuart.o(.text)
    oneCRC16                                 0x08022813   Thumb Code    38  mainuart.o(.text)
    MAINUSART_SendEx                         0x08022839   Thumb Code   238  mainuart.o(.text)
    AddTxPlus                                0x08022927   Thumb Code   218  mainuart.o(.text)
    ModbusRequestPlus                        0x08022a01   Thumb Code   134  mainuart.o(.text)
    ScriptCrcChk                             0x08022a87   Thumb Code   196  mainuart.o(.text)
    OperateScript                            0x08022b4b   Thumb Code   916  mainuart.o(.text)
    OnlineParse                              0x08022edf   Thumb Code   300  mainuart.o(.text)
    RequestAdd                               0x0802300b   Thumb Code    84  mainuart.o(.text)
    ModbusRequest                            0x0802305f   Thumb Code   104  mainuart.o(.text)
    RequestCmp                               0x080230c7   Thumb Code    90  mainuart.o(.text)
    NeedRequestTx                            0x08023121   Thumb Code    98  mainuart.o(.text)
    ClearOnlineCmdCache                      0x08023183   Thumb Code    24  mainuart.o(.text)
    AddTxNoCrc                               0x0802319b   Thumb Code   148  mainuart.o(.text)
    AddTx                                    0x0802322f   Thumb Code   206  mainuart.o(.text)
    UsartTxQueueDoNext                       0x080232fd   Thumb Code    36  mainuart.o(.text)
    Log_Clear                                0x08023341   Thumb Code    82  log.o(.text)
    Log_ClearType                            0x08023393   Thumb Code    88  log.o(.text)
    Log_Check                                0x080233eb   Thumb Code    38  log.o(.text)
    Log_Init                                 0x08023411   Thumb Code    38  log.o(.text)
    Log_GetSize                              0x08023437   Thumb Code    84  log.o(.text)
    Log_GetSizeType                          0x0802348b   Thumb Code    88  log.o(.text)
    Log_Send                                 0x080234e3   Thumb Code   324  log.o(.text)
    Log_Send1                                0x08023627   Thumb Code    46  log.o(.text)
    Log_SendType                             0x08023655   Thumb Code   400  log.o(.text)
    Log_Write                                0x080237e5   Thumb Code   368  log.o(.text)
    Log_Cmd                                  0x08023955   Thumb Code   176  log.o(.text)
    Log_CmdWrite                             0x08023a05   Thumb Code    86  log.o(.text)
    CreateArray                              0x08023a81   Thumb Code    24  cdv_array.o(.text)
    ClearArray                               0x08023a99   Thumb Code    32  cdv_array.o(.text)
    DeleteArray                              0x08023ab9   Thumb Code    18  cdv_array.o(.text)
    ArrayAdd                                 0x08023acb   Thumb Code   134  cdv_array.o(.text)
    ArrayDelete                              0x08023b51   Thumb Code    76  cdv_array.o(.text)
    ArrayModify                              0x08023b9d   Thumb Code    54  cdv_array.o(.text)
    ArrayGet                                 0x08023bd3   Thumb Code    40  cdv_array.o(.text)
    ArrayTest                                0x08023bfb   Thumb Code    80  cdv_array.o(.text)
    CteateArrayU32                           0x08023c4b   Thumb Code    18  cdv_array.o(.text)
    ClearArrayU32                            0x08023c5d   Thumb Code    16  cdv_array.o(.text)
    DeleteArrayU32                           0x08023c6d   Thumb Code    18  cdv_array.o(.text)
    WriteArrayU32                            0x08023c7f   Thumb Code    30  cdv_array.o(.text)
    ArrayU32Add                              0x08023c9d   Thumb Code   108  cdv_array.o(.text)
    CteateArrayU8                            0x08023d09   Thumb Code    18  cdv_array.o(.text)
    ClearArrayU8                             0x08023d1b   Thumb Code    16  cdv_array.o(.text)
    DeleteArrayU8                            0x08023d2b   Thumb Code    18  cdv_array.o(.text)
    WriteArrayU8                             0x08023d3d   Thumb Code    30  cdv_array.o(.text)
    ArrayU8Add                               0x08023d5b   Thumb Code    88  cdv_array.o(.text)
    CteateTree                               0x08023db3   Thumb Code    18  cdv_array.o(.text)
    InsertLNode                              0x08023dc5   Thumb Code    60  cdv_array.o(.text)
    InsertRNode                              0x08023e01   Thumb Code    60  cdv_array.o(.text)
    RemoveNode                               0x08023e3d   Thumb Code    42  cdv_array.o(.text)
    DeleteTree                               0x08023e67   Thumb Code    18  cdv_array.o(.text)
    LIST_Cteate                              0x08023e79   Thumb Code   126  cdv_array.o(.text)
    LIST_AddTail                             0x08023ef7   Thumb Code   160  cdv_array.o(.text)
    LIST_AddHead                             0x08023f97   Thumb Code   156  cdv_array.o(.text)
    LIST_Insert                              0x08024033   Thumb Code   152  cdv_array.o(.text)
    LIST_RemoveAll                           0x080240cb   Thumb Code   126  cdv_array.o(.text)
    LIST_Remove                              0x08024149   Thumb Code   110  cdv_array.o(.text)
    LIST_Check                               0x080241b7   Thumb Code   294  cdv_array.o(.text)
    LIST_Test                                0x080242dd   Thumb Code   124  cdv_array.o(.text)
    ClearLineInfo                            0x08024359   Thumb Code    38  newscript.o(.text)
    AddWorkerAddr                            0x0802437f   Thumb Code    16  newscript.o(.text)
    AddConfigAddr                            0x0802438f   Thumb Code    16  newscript.o(.text)
    GetWorkerAddr                            0x0802439f   Thumb Code    64  newscript.o(.text)
    GetConfigAddr                            0x080243df   Thumb Code    40  newscript.o(.text)
    GetResAddr                               0x08024407   Thumb Code   132  newscript.o(.text)
    GetResAddr0                              0x0802448b   Thumb Code   396  newscript.o(.text)
    LineCrcChk                               0x08024617   Thumb Code   130  newscript.o(.text)
    GetLineInfo                              0x08024699   Thumb Code   414  newscript.o(.text)
    Flash_Send                               0x08024837   Thumb Code    94  newscript.o(.text)
    GetLineVersion                           0x08024895   Thumb Code   182  newscript.o(.text)
    GetYYCVersion                            0x0802494b   Thumb Code   182  newscript.o(.text)
    ReadCoil                                 0x08024a05   Thumb Code   284  modbus.o(.text)
    ReadInCoil                               0x08024b21   Thumb Code   302  modbus.o(.text)
    ReadRegister                             0x08024c4f   Thumb Code   204  modbus.o(.text)
    ReadInRegister                           0x08024d1b   Thumb Code   202  modbus.o(.text)
    WriteCoil                                0x08024de5   Thumb Code   284  modbus.o(.text)
    WriteRegister                            0x08024f01   Thumb Code    88  modbus.o(.text)
    WriteMultiCoil                           0x08024f59   Thumb Code   420  modbus.o(.text)
    WriteMultiRegister                       0x080250fd   Thumb Code   154  modbus.o(.text)
    ModbusParse                              0x08025197   Thumb Code   228  modbus.o(.text)
    SwapByte                                 0x0802527b   Thumb Code    74  modbus.o(.text)
    Endian_TF                                0x080252c5   Thumb Code   122  modbus.o(.text)
    WriteRegisterCmd                         0x0802533f   Thumb Code   118  modbus.o(.text)
    WriteMultiRegisterCmd                    0x080253b5   Thumb Code   208  modbus.o(.text)
    ReadRegisterCmd                          0x08025485   Thumb Code   138  modbus.o(.text)
    ReadInRegisterCmd                        0x0802550f   Thumb Code   138  modbus.o(.text)
    WriteCoilCmd                             0x08025599   Thumb Code   128  modbus.o(.text)
    WriteMultiCoilCmd                        0x08025619   Thumb Code   156  modbus.o(.text)
    ReadInCoilCmd                            0x080256b5   Thumb Code   170  modbus.o(.text)
    ReadCoilCmd                              0x0802575f   Thumb Code   140  modbus.o(.text)
    ReadCoilReqCmd                           0x080257eb   Thumb Code   312  modbus.o(.text)
    ReadInCoilReqCmd                         0x08025923   Thumb Code   330  modbus.o(.text)
    ReadRegisterReqCmd                       0x08025a6d   Thumb Code   258  modbus.o(.text)
    ReadInRegisterReqCmd                     0x08025b6f   Thumb Code   228  modbus.o(.text)
    WriteCoilReqCmd                          0x08025c53   Thumb Code   362  modbus.o(.text)
    WriteRegisterReqCmd                      0x08025dbd   Thumb Code   152  modbus.o(.text)
    WriteMultiCoilReqCmd                     0x08025e55   Thumb Code   520  modbus.o(.text)
    WriteMultiRegisterReqCmd                 0x0802605d   Thumb Code   224  modbus.o(.text)
    ReadCoilReqToVar                         0x0802613d   Thumb Code    84  modbus.o(.text)
    ReadInCoilReqToVar                       0x08026191   Thumb Code    84  modbus.o(.text)
    ReadRegReqToVar                          0x080261e5   Thumb Code   124  modbus.o(.text)
    ReadInRegReqToVar                        0x08026261   Thumb Code    76  modbus.o(.text)
    IsTaskExist                              0x080262bd   Thumb Code    24  worker.o(.text)
    ReadWorkerBuf                            0x080262d5   Thumb Code    34  worker.o(.text)
    ToWorkerCmd                              0x080262f7   Thumb Code    66  worker.o(.text)
    InitWorker                               0x08026339   Thumb Code   112  worker.o(.text)
    NextWorkerCmd                            0x080263a9   Thumb Code    62  worker.o(.text)
    WorkerCmdParse                           0x080263e7   Thumb Code    64  worker.o(.text)
    RunWorkerCmd                             0x08026427   Thumb Code    30  worker.o(.text)
    RunWorker                                0x08026445   Thumb Code   292  worker.o(.text)
    WorkerTask                               0x08026569   Thumb Code    20  worker.o(.text)
    WorkerThreadRun                          0x0802657d   Thumb Code   152  worker.o(.text)
    WorkerControl                            0x08026615   Thumb Code   372  worker.o(.text)
    RestartWorkers                           0x08026789   Thumb Code    94  worker.o(.text)
    WorkerExitSet                            0x080267e7   Thumb Code   102  worker.o(.text)
    WorkerGotoSet                            0x0802684d   Thumb Code   114  worker.o(.text)
    WorkerQuery                              0x080268bf   Thumb Code   114  worker.o(.text)
    IsWorkerExist                            0x08026931   Thumb Code    78  worker.o(.text)
    WorkerQueryStatus                        0x0802697f   Thumb Code    78  worker.o(.text)
    WorkerQueryStep                          0x080269cd   Thumb Code    78  worker.o(.text)
    AllWorkerCtrl                            0x08026a1b   Thumb Code    30  worker.o(.text)
    ManagerControl                           0x08026a39   Thumb Code    90  worker.o(.text)
    ManagerQueryStatus                       0x08026a93   Thumb Code    44  worker.o(.text)
    WorkerCmd                                0x08026abf   Thumb Code   304  worker.o(.text)
    LineCmd                                  0x08026bef   Thumb Code   214  worker.o(.text)
    WorkerRead                               0x08026cc5   Thumb Code    22  worker.o(.text)
    NPC1Parse                                0x08026cdd   Thumb Code    50  cmdparse.o(.text)
    NPC2Parse                                0x08026d0f   Thumb Code   108  cmdparse.o(.text)
    YYCCtrlParse                             0x08026d7b   Thumb Code   198  cmdparse.o(.text)
    YYCCtrlParse1                            0x08026e41   Thumb Code   318  cmdparse.o(.text)
    CmdParse                                 0x08026f7f   Thumb Code   488  cmdparse.o(.text)
    GetTable                                 0x08027169   Thumb Code    58  cascade.o(.text)
    NPC_NETVeriSet                           0x080271a3   Thumb Code   112  cascade.o(.text)
    NPC_NETQuery                             0x08027213   Thumb Code    88  cascade.o(.text)
    NPC_NETParse                             0x0802726b   Thumb Code    66  cascade.o(.text)
    Cascade_HaveSlaveTable                   0x080272ad   Thumb Code    16  cascade.o(.text)
    Cascade_Master_Query                     0x080272bd   Thumb Code   170  cascade.o(.text)
    Cascade_Master_Read                      0x08027367   Thumb Code    90  cascade.o(.text)
    Cascade_Master_Write                     0x080273c1   Thumb Code    90  cascade.o(.text)
    CascadeMasterTR2                         0x0802741b   Thumb Code   176  cascade.o(.text)
    CascadeMasterTR                          0x080274cb   Thumb Code   444  cascade.o(.text)
    Cascade_Slave_Write2                     0x08027687   Thumb Code    24  cascade.o(.text)
    Cascade_Slave_Write                      0x0802769f   Thumb Code   116  cascade.o(.text)
    CascadeTranferCmd                        0x08027713   Thumb Code   156  cascade.o(.text)
    TFCmdParse                               0x080277af   Thumb Code    86  cascade.o(.text)
    SlaveCheck                               0x08027805   Thumb Code    58  cascade.o(.text)
    CascadeCheck                             0x0802783f   Thumb Code    86  cascade.o(.text)
    CascadeCombine                           0x08027895   Thumb Code   104  cascade.o(.text)
    CascadeLocal                             0x080278fd   Thumb Code    40  cascade.o(.text)
    CascadeTableSend                         0x08027925   Thumb Code    32  cascade.o(.text)
    CascadeGetNativeNo                       0x08027945   Thumb Code    24  cascade.o(.text)
    PortCmdCache                             0x0802795d   Thumb Code   176  cascade.o(.text)
    ClearPortCmdCache                        0x08027a0d   Thumb Code    22  cascade.o(.text)
    CascadeSlaveParse                        0x08027a23   Thumb Code   274  cascade.o(.text)
    CascadeSlaveParse2                       0x08027b35   Thumb Code   280  cascade.o(.text)
    BufToInReg2                              0x08027c4d   Thumb Code   118  cascade.o(.text)
    BufToInReg                               0x08027cc3   Thumb Code   112  cascade.o(.text)
    BufToReg2                                0x08027d33   Thumb Code   118  cascade.o(.text)
    BufToReg                                 0x08027da9   Thumb Code   166  cascade.o(.text)
    BufToInCoil                              0x08027e4f   Thumb Code    82  cascade.o(.text)
    BufToInCoil2                             0x08027ea1   Thumb Code   186  cascade.o(.text)
    BufToInCoil3                             0x08027f5b   Thumb Code   320  cascade.o(.text)
    BufToCoil                                0x0802809b   Thumb Code    82  cascade.o(.text)
    BufToCoil2                               0x080280ed   Thumb Code   186  cascade.o(.text)
    BufToCoil3                               0x080281a7   Thumb Code   344  cascade.o(.text)
    CoilToCoil                               0x080282ff   Thumb Code   550  cascade.o(.text)
    CoilCmp                                  0x08028525   Thumb Code   168  cascade.o(.text)
    CascadeModbus_ReadReg2                   0x080285cd   Thumb Code   134  cascade.o(.text)
    CascadeModbus_ReadReg                    0x08028653   Thumb Code   132  cascade.o(.text)
    CascadeModbus_ReadInReg2                 0x080286d7   Thumb Code   166  cascade.o(.text)
    CascadeModbus_ReadInReg                  0x0802877d   Thumb Code   132  cascade.o(.text)
    CascadeModbus_ReadCoil2                  0x08028801   Thumb Code   138  cascade.o(.text)
    CascadeModbus_ReadCoil                   0x0802888b   Thumb Code   132  cascade.o(.text)
    CascadeModbus_ReadInCoil2                0x0802890f   Thumb Code   138  cascade.o(.text)
    CascadeModbus_ReadInCoil                 0x08028999   Thumb Code   132  cascade.o(.text)
    CascadeModbus_AllUpdate                  0x08028a1d   Thumb Code   252  cascade.o(.text)
    CascadeOverlapOWrite                     0x08028b19   Thumb Code   172  cascade.o(.text)
    CascadeModbus_Map                        0x08028bc5   Thumb Code   480  cascade.o(.text)
    CascadeModbus_MapInit                    0x08028da5   Thumb Code   660  cascade.o(.text)
    CascadeModbus_MapCheck                   0x08029039   Thumb Code   480  cascade.o(.text)
    CascadeModbus_MapFind                    0x08029219   Thumb Code   128  cascade.o(.text)
    CascadeModbus_MapFindInExp               0x08029299   Thumb Code   224  cascade.o(.text)
    CascadeUsartTranferCmd                   0x08029379   Thumb Code   266  cascade.o(.text)
    TFICmd                                   0x08029483   Thumb Code   132  cascade.o(.text)
    TFOCmd                                   0x08029507   Thumb Code   320  cascade.o(.text)
    TFDACmd                                  0x08029647   Thumb Code   266  cascade.o(.text)
    TFADCmd                                  0x08029751   Thumb Code   144  cascade.o(.text)
    TFUsartCmdParse                          0x080297e1   Thumb Code   220  cascade.o(.text)
    EthInfoSend                              0x080298bd   Thumb Code   238  tcp_server.o(.text)
    http_server_serve                        0x080299ab   Thumb Code   506  tcp_server.o(.text)
    tcp_connected_init                       0x08029bb1   Thumb Code    94  tcp_server.o(.text)
    tcp_server_init                          0x08029ed7   Thumb Code    92  tcp_server.o(.text)
    TCP_ServerSend                           0x08029f33   Thumb Code    80  tcp_server.o(.text)
    TCP_ServerSendPlus                       0x08029f83   Thumb Code   100  tcp_server.o(.text)
    TCP_ServerSendEx                         0x08029fe7   Thumb Code   124  tcp_server.o(.text)
    TCP_ServerSendExPlus                     0x0802a063   Thumb Code   140  tcp_server.o(.text)
    GetIpFromArg                             0x0802a0ef   Thumb Code    28  tcp_server.o(.text)
    udpecho_init                             0x0802a26d   Thumb Code    90  udpmain.o(.text)
    udpecho_find                             0x0802a2c7   Thumb Code   284  udpmain.o(.text)
    CentralizedControl_QuerySysInfo          0x0802a455   Thumb Code   366  centralizedcontrol.o(.text)
    CentralizedControl_QueryDevData          0x0802a5c3   Thumb Code   274  centralizedcontrol.o(.text)
    CentralizedControl_SetDevData            0x0802a6d5   Thumb Code   182  centralizedcontrol.o(.text)
    CentralizedControl_SysOperation          0x0802a78b   Thumb Code   142  centralizedcontrol.o(.text)
    CentralizedControl_OTA                   0x0802a819   Thumb Code   158  centralizedcontrol.o(.text)
    ResetCdv                                 0x0802a8ed   Thumb Code    42  sysmng.o(.text)
    ChangeToCdvStat                          0x0802a917   Thumb Code   118  sysmng.o(.text)
    SysCmd                                   0x0802a98d   Thumb Code    92  sysmng.o(.text)
    ExpResult                                0x0802aa0d   Thumb Code    34  logic.o(.text)
    Result                                   0x0802aa2f   Thumb Code    20  logic.o(.text)
    BackResultToKFC                          0x0802aa43   Thumb Code    76  logic.o(.text)
    Log_ContinueIf                           0x0802aa8f   Thumb Code    56  logic.o(.text)
    Log_BreakIf                              0x0802aac7   Thumb Code    56  logic.o(.text)
    Log_EndLoop                              0x0802aaff   Thumb Code    28  logic.o(.text)
    Log_Loop                                 0x0802ab1b   Thumb Code    56  logic.o(.text)
    Log_Else                                 0x0802ab53   Thumb Code    28  logic.o(.text)
    Log_EndIf                                0x0802ab6f   Thumb Code     6  logic.o(.text)
    Log_ElseIf                               0x0802ab75   Thumb Code    40  logic.o(.text)
    Log_If                                   0x0802ab9d   Thumb Code   194  logic.o(.text)
    LogicScript                              0x0802ac5f   Thumb Code   304  logic.o(.text)
    Log_Compare                              0x0802ad8f   Thumb Code   268  logic.o(.text)
    Log_Relation                             0x0802ae9b   Thumb Code    60  logic.o(.text)
    CDV1_GpioConfig                          0x0802aef5   Thumb Code   632  io.o(.text)
    NPC2_GpioConfig                          0x0802b16d   Thumb Code   270  io.o(.text)
    NPC2_3_DipConfig                         0x0802b27b   Thumb Code    60  io.o(.text)
    NPC2_3_GpioConfig                        0x0802b2b7   Thumb Code   290  io.o(.text)
    GPIO_Configuration                       0x0802b3d9   Thumb Code     8  io.o(.text)
    NPC2_IOInit                              0x0802b3e1   Thumb Code   614  io.o(.text)
    IOInit                                   0x0802b647   Thumb Code     8  io.o(.text)
    IParWrite                                0x0802b64f   Thumb Code    72  io.o(.text)
    IParRead                                 0x0802b697   Thumb Code    76  io.o(.text)
    ExIRead                                  0x0802b6e3   Thumb Code    16  io.o(.text)
    ExORead                                  0x0802b6f3   Thumb Code    16  io.o(.text)
    ExOReadAll                               0x0802b703   Thumb Code   356  io.o(.text)
    ExOWrite                                 0x0802b867   Thumb Code    16  io.o(.text)
    IRead                                    0x0802b877   Thumb Code    38  io.o(.text)
    IReadAll                                 0x0802b89d   Thumb Code   124  io.o(.text)
    IReadAllFilter                           0x0802b919   Thumb Code   240  io.o(.text)
    ExIReadAll                               0x0802ba09   Thumb Code   248  io.o(.text)
    IBitRead                                 0x0802bb01   Thumb Code    54  io.o(.text)
    ShakeIRead                               0x0802bb37   Thumb Code   144  io.o(.text)
    ORead                                    0x0802bbc7   Thumb Code    38  io.o(.text)
    OReadAll                                 0x0802bbed   Thumb Code   176  io.o(.text)
    OWriteAll                                0x0802bc9d   Thumb Code    68  io.o(.text)
    OBitRead                                 0x0802bce1   Thumb Code    54  io.o(.text)
    OWrite                                   0x0802bd17   Thumb Code   174  io.o(.text)
    ICmd                                     0x0802bdc5   Thumb Code   916  io.o(.text)
    OCmd                                     0x0802c159   Thumb Code   250  io.o(.text)
    Read_Input_All                           0x0802c253   Thumb Code   170  io.o(.text)
    Read_Output_ALL                          0x0802c2fd   Thumb Code   208  io.o(.text)
    ExIOInit                                 0x0802c3cd   Thumb Code     2  io.o(.text)
    ValSet                                   0x0802c3d1   Thumb Code    34  var.o(.text)
    VarGet                                   0x0802c3f3   Thumb Code    32  var.o(.text)
    ValFlashSet                              0x0802c413   Thumb Code    48  var.o(.text)
    ValToFlash                               0x0802c443   Thumb Code    54  var.o(.text)
    FlashToVal                               0x0802c479   Thumb Code    54  var.o(.text)
    ValFlashGet                              0x0802c4af   Thumb Code    50  var.o(.text)
    ValAdd                                   0x0802c4e1   Thumb Code    44  var.o(.text)
    ValSub                                   0x0802c50d   Thumb Code    44  var.o(.text)
    ValMul                                   0x0802c539   Thumb Code    44  var.o(.text)
    ValDiv                                   0x0802c565   Thumb Code    52  var.o(.text)
    ValAnd                                   0x0802c599   Thumb Code    52  var.o(.text)
    ValOr                                    0x0802c5cd   Thumb Code    52  var.o(.text)
    ValNot                                   0x0802c601   Thumb Code    50  var.o(.text)
    ValGre                                   0x0802c633   Thumb Code    52  var.o(.text)
    ValEqu                                   0x0802c667   Thumb Code    54  var.o(.text)
    ValNotEqu                                0x0802c69d   Thumb Code    54  var.o(.text)
    ValLes                                   0x0802c6d3   Thumb Code    54  var.o(.text)
    ValWaitGre                               0x0802c709   Thumb Code    46  var.o(.text)
    ValWaitEqu                               0x0802c737   Thumb Code    46  var.o(.text)
    ValWaitNotEqu                            0x0802c765   Thumb Code    46  var.o(.text)
    ValWaitLes                               0x0802c793   Thumb Code   154  var.o(.text)
    ValMod                                   0x0802c82d   Thumb Code    54  var.o(.text)
    ValParRead                               0x0802c863   Thumb Code   116  var.o(.text)
    ValCmd                                   0x0802c8d7   Thumb Code   508  var.o(.text)
    MsgSend                                  0x0802cae1   Thumb Code    32  msg.o(.text)
    MsgWait                                  0x0802cb01   Thumb Code    76  msg.o(.text)
    ClearMsg                                 0x0802cb4d   Thumb Code    46  msg.o(.text)
    MsgCmd                                   0x0802cb7b   Thumb Code   134  msg.o(.text)
    TimeDelay                                0x0802cc09   Thumb Code    28  time.o(.text)
    TimeCmd                                  0x0802cc25   Thumb Code   176  time.o(.text)
    ReadClock                                0x0802ccd5   Thumb Code    14  time.o(.text)
    ReadClock1s                              0x0802cce3   Thumb Code     6  time.o(.text)
    ReadClock100ms                           0x0802cce9   Thumb Code     6  time.o(.text)
    ReadClock10ms                            0x0802ccef   Thumb Code     6  time.o(.text)
    ReadClock1ms                             0x0802ccf5   Thumb Code    24  time.o(.text)
    ClockCmd                                 0x0802cd0d   Thumb Code   228  time.o(.text)
    TIM3_Init                                0x0802cdf1   Thumb Code   102  time.o(.text)
    TIM3_IRQHandler                          0x0802ce57   Thumb Code   142  time.o(.text)
    Adc_Init                                 0x0802cf01   Thumb Code   124  adc.o(.text)
    ADC1_DMA_Init                            0x0802cf7d   Thumb Code   264  adc.o(.text)
    Adc2_Init                                0x0802d085   Thumb Code   124  adc.o(.text)
    Adc2_Dma_Init                            0x0802d101   Thumb Code   272  adc.o(.text)
    Adc2_Dma_Init2                           0x0802d211   Thumb Code   318  adc.o(.text)
    Adc2_Dma_Init4                           0x0802d34f   Thumb Code   316  adc.o(.text)
    Adc3_Init                                0x0802d48b   Thumb Code   126  adc.o(.text)
    Adc3_Dma_Init                            0x0802d509   Thumb Code   272  adc.o(.text)
    Get_Adc                                  0x0802d619   Thumb Code    44  adc.o(.text)
    Get_Adc2                                 0x0802d645   Thumb Code    44  adc.o(.text)
    Get_ADCx                                 0x0802d671   Thumb Code    46  adc.o(.text)
    Get_Adc_Average                          0x0802d69f   Thumb Code    48  adc.o(.text)
    Get_Adc2_Average                         0x0802d6cf   Thumb Code    48  adc.o(.text)
    Adc_Voltge                               0x0802d6ff   Thumb Code   114  adc.o(.text)
    Adc_val_filter                           0x0802d771   Thumb Code    90  adc.o(.text)
    Get_Average                              0x0802d7cb   Thumb Code   136  adc.o(.text)
    SUM                                      0x0802d853   Thumb Code    28  adc.o(.text)
    AVRG                                     0x0802d86f   Thumb Code    36  adc.o(.text)
    Grubbs                                   0x0802d893   Thumb Code   420  adc.o(.text)
    AdcRead                                  0x0802da37   Thumb Code    46  adc.o(.text)
    Get_Read_AD                              0x0802da65   Thumb Code    92  adc.o(.text)
    AdcCmd                                   0x0802dac1   Thumb Code   204  adc.o(.text)
    Read_Adc_Par                             0x0802db8d   Thumb Code   486  adc.o(.text)
    Get_Ad_value                             0x0802dd73   Thumb Code   210  adc.o(.text)
    UpdateAdcVal                             0x0802de45   Thumb Code    30  adc.o(.text)
    Get_Da_vol                               0x0802de79   Thumb Code    16  dac.o(.text)
    Dac1_Init                                0x0802de89   Thumb Code    84  dac.o(.text)
    Dac1_Set_Vol                             0x0802dedd   Thumb Code    24  dac.o(.text)
    Dac2_Init                                0x0802def5   Thumb Code    84  dac.o(.text)
    Dac2_Set_Vol                             0x0802df49   Thumb Code    56  dac.o(.text)
    Dac_set_Voltge                           0x0802df81   Thumb Code   152  dac.o(.text)
    Dac_Get_Voltge                           0x0802e019   Thumb Code    30  dac.o(.text)
    CDV_DacRun                               0x0802e037   Thumb Code   142  dac.o(.text)
    CDV_DacStop                              0x0802e0c5   Thumb Code     4  dac.o(.text)
    CDV_DacWait                              0x0802e0c9   Thumb Code     4  dac.o(.text)
    DacRead                                  0x0802e0cd   Thumb Code    46  dac.o(.text)
    DacCmd                                   0x0802e0fb   Thumb Code   316  dac.o(.text)
    Read_Dac_Par                             0x0802e237   Thumb Code   366  dac.o(.text)
    Dac_Set_Vol                              0x0802e3a5   Thumb Code   124  dac.o(.text)
    Get_Da_value                             0x0802e421   Thumb Code   110  dac.o(.text)
    UpdateDacVal                             0x0802e48f   Thumb Code    70  dac.o(.text)
    delay_ns                                 0x0802e4f9   Thumb Code    18  dac7512.o(.text)
    DAC7512_Pin_Config                       0x0802e50b   Thumb Code    78  dac7512.o(.text)
    WriteToDAC7512                           0x0802e559   Thumb Code   146  dac7512.o(.text)
    WriteToDA2C_7512                         0x0802e5eb   Thumb Code   146  dac7512.o(.text)
    GetComNoFromID                           0x0802e685   Thumb Code    28  universalscom.o(.text)
    ClearUniversalCnt                        0x0802e6a1   Thumb Code    24  universalscom.o(.text)
    UniSerialComSetCmd                       0x0802e6b9   Thumb Code   206  universalscom.o(.text)
    UniSerialSendCRC                         0x0802e787   Thumb Code   170  universalscom.o(.text)
    UniSerialModbusParse                     0x0802e831   Thumb Code   942  universalscom.o(.text)
    AlarmCancel                              0x0802ebe1   Thumb Code    28  alarm.o(.text)
    AlarmQuery                               0x0802ebfd   Thumb Code   154  alarm.o(.text)
    App1Parse                                0x0802ec97   Thumb Code    66  alarm.o(.text)
    ApplyParse                               0x0802ecd9   Thumb Code    50  alarm.o(.text)
    AlarmQuery11                             0x0802ed0b   Thumb Code   128  alarm.o(.text)
    FlashToAlarmStruct                       0x0802ed8b   Thumb Code   436  alarm.o(.text)
    Alarm_flag                               0x0802ef3f   Thumb Code    18  alarm.o(.text)
    LED_Init                                 0x0802ef65   Thumb Code    76  led.o(.text)
    Led_Test                                 0x0802efb1   Thumb Code    48  led.o(.text)
    IN_Hc595SendByte                         0x0802efe1   Thumb Code    94  led.o(.text)
    OUT_Hc595SendByte                        0x0802f03f   Thumb Code    94  led.o(.text)
    IN_DisPlay                               0x0802f09d   Thumb Code    32  led.o(.text)
    OUT_DisPlay                              0x0802f0bd   Thumb Code    32  led.o(.text)
    InitF                                    0x0802f0e9   Thumb Code    22  varexp.o(.text)
    DeInitF                                  0x0802f0ff   Thumb Code    20  varexp.o(.text)
    isEmptyF                                 0x0802f113   Thumb Code    18  varexp.o(.text)
    PushF                                    0x0802f125   Thumb Code    68  varexp.o(.text)
    GetTopF                                  0x0802f169   Thumb Code    24  varexp.o(.text)
    PopF                                     0x0802f181   Thumb Code    20  varexp.o(.text)
    Init                                     0x0802f195   Thumb Code    22  varexp.o(.text)
    Clear                                    0x0802f1ab   Thumb Code     6  varexp.o(.text)
    DeInit                                   0x0802f1b1   Thumb Code    20  varexp.o(.text)
    isEmpty                                  0x0802f1c5   Thumb Code    18  varexp.o(.text)
    Push                                     0x0802f1d7   Thumb Code    68  varexp.o(.text)
    GetTop                                   0x0802f21b   Thumb Code    24  varexp.o(.text)
    Pop                                      0x0802f233   Thumb Code    20  varexp.o(.text)
    InitC                                    0x0802f247   Thumb Code    22  varexp.o(.text)
    ClearC                                   0x0802f25d   Thumb Code     6  varexp.o(.text)
    DeInitC                                  0x0802f263   Thumb Code    20  varexp.o(.text)
    isEmptyC                                 0x0802f277   Thumb Code    18  varexp.o(.text)
    PushC                                    0x0802f289   Thumb Code    64  varexp.o(.text)
    GetTopC                                  0x0802f2c9   Thumb Code    24  varexp.o(.text)
    PopC                                     0x0802f2e1   Thumb Code    20  varexp.o(.text)
    isPrefixSignOperators                    0x0802f2f5   Thumb Code    18  varexp.o(.text)
    isArithmeticOperators                    0x0802f307   Thumb Code    30  varexp.o(.text)
    IsRelationalOperators                    0x0802f325   Thumb Code    34  varexp.o(.text)
    IsLogicalOperators                       0x0802f347   Thumb Code    22  varexp.o(.text)
    isNumeric                                0x0802f35d   Thumb Code    22  varexp.o(.text)
    isLBracket                               0x0802f373   Thumb Code    14  varexp.o(.text)
    isRBracket                               0x0802f381   Thumb Code    14  varexp.o(.text)
    isVar                                    0x0802f38f   Thumb Code    14  varexp.o(.text)
    isI                                      0x0802f39d   Thumb Code    14  varexp.o(.text)
    isO                                      0x0802f3ab   Thumb Code    14  varexp.o(.text)
    isAdc                                    0x0802f3b9   Thumb Code    14  varexp.o(.text)
    isDac                                    0x0802f3c7   Thumb Code    14  varexp.o(.text)
    isTime                                   0x0802f3d5   Thumb Code    14  varexp.o(.text)
    isWorker                                 0x0802f3e3   Thumb Code    14  varexp.o(.text)
    isIgnorable                              0x0802f3f1   Thumb Code    18  varexp.o(.text)
    Priority                                 0x0802f403   Thumb Code   118  varexp.o(.text)
    CalculateF                               0x0802f479   Thumb Code   450  varexp.o(.text)
    Calculate                                0x0802f63b   Thumb Code   232  varexp.o(.text)
    atoi_                                    0x0802f723   Thumb Code   228  varexp.o(.text)
    StrtoFloat                               0x0802f807   Thumb Code    92  varexp.o(.text)
    Char2Float                               0x0802f863   Thumb Code   132  varexp.o(.text)
    Char2Int                                 0x0802f8e7   Thumb Code    72  varexp.o(.text)
    StrtoSpecialRelationalOperator           0x0802f92f   Thumb Code   138  varexp.o(.text)
    StrtoSpecialLogicalOperator              0x0802f9b9   Thumb Code   108  varexp.o(.text)
    Check                                    0x0802fa25   Thumb Code    82  varexp.o(.text)
    CheckEx                                  0x0802fa77   Thumb Code   228  varexp.o(.text)
    CheckExOut                               0x0802fb5b   Thumb Code   506  varexp.o(.text)
    ArithmeticF                              0x0802fd55   Thumb Code   936  varexp.o(.text)
    Arithmetic                               0x080300fd   Thumb Code   870  varexp.o(.text)
    ArithmeticEx                             0x08030463   Thumb Code   866  varexp.o(.text)
    memmng_memcpy                            0x080307c9   Thumb Code    76  memmng.o(.text)
    memmng_malloc                            0x08030815   Thumb Code   116  memmng.o(.text)
    memmng_free                              0x08030889   Thumb Code    82  memmng.o(.text)
    memmng_memset                            0x080308db   Thumb Code    20  memmng.o(.text)
    memmng_init                              0x080308ef   Thumb Code    28  memmng.o(.text)
    memmng_used                              0x0803090b   Thumb Code    26  memmng.o(.text)
    memmng_perused                           0x08030925   Thumb Code    22  memmng.o(.text)
    memmng_allocd                            0x0803093b   Thumb Code    24  memmng.o(.text)
    memmng_realloc                           0x08030953   Thumb Code    42  memmng.o(.text)
    memmng_test                              0x0803097d   Thumb Code    50  memmng.o(.text)
    USART1_RxInit                            0x080309f1   Thumb Code    52  uart1.o(.text)
    USART1_RxDeInit                          0x08030a25   Thumb Code    16  uart1.o(.text)
    USART1_IRQHandler                        0x08030a35   Thumb Code    90  uart1.o(.text)
    USART1_Configuration                     0x08030a8f   Thumb Code   288  uart1.o(.text)
    DMA_usart1Send                           0x08030baf   Thumb Code   108  uart1.o(.text)
    USART1_Send                              0x08030c1b   Thumb Code    16  uart1.o(.text)
    USART1_Receive                           0x08030c2b   Thumb Code   122  uart1.o(.text)
    USART1_TR                                0x08030ca5   Thumb Code    72  uart1.o(.text)
    DMA2_Stream7_IRQHandler                  0x08030ced   Thumb Code    42  uart1.o(.text)
    USART2_RxInit                            0x08030d3d   Thumb Code    52  uart2.o(.text)
    USART2_RxDeInit                          0x08030d71   Thumb Code    16  uart2.o(.text)
    USART2_IRQHandler                        0x08030d81   Thumb Code    70  uart2.o(.text)
    USART2_Configuration                     0x08030dc7   Thumb Code   236  uart2.o(.text)
    DMA_usart2Send                           0x08030eb3   Thumb Code    70  uart2.o(.text)
    USART2_Send                              0x08030ef9   Thumb Code    16  uart2.o(.text)
    USART2_Receive                           0x08030f09   Thumb Code   124  uart2.o(.text)
    USART2_TR                                0x08030f85   Thumb Code    72  uart2.o(.text)
    GetUsartRxLen                            0x08030fed   Thumb Code    20  uart3.o(.text)
    SetUsartRxLen                            0x08031001   Thumb Code    16  uart3.o(.text)
    USART3_RxInit                            0x08031011   Thumb Code    52  uart3.o(.text)
    USART3_RxDeInit                          0x08031045   Thumb Code    16  uart3.o(.text)
    USART3_IRQHandler                        0x08031055   Thumb Code    78  uart3.o(.text)
    USART3_Configuration                     0x080310a3   Thumb Code   248  uart3.o(.text)
    DMA_usart3Send                           0x0803119b   Thumb Code   104  uart3.o(.text)
    USART3_Send                              0x08031203   Thumb Code    16  uart3.o(.text)
    USART3_Receive_Data                      0x08031213   Thumb Code    80  uart3.o(.text)
    USART3_Receive                           0x08031263   Thumb Code   124  uart3.o(.text)
    USART3_TR                                0x080312df   Thumb Code    72  uart3.o(.text)
    UART4_RxInit                             0x08031359   Thumb Code    52  uart4.o(.text)
    UART4_RxDeInit                           0x0803138d   Thumb Code    16  uart4.o(.text)
    UART4_IRQHandler                         0x0803139d   Thumb Code    20  uart4.o(.text)
    UART4_Configuration                      0x080313b1   Thumb Code   206  uart4.o(.text)
    DMA_usart4Send                           0x0803147f   Thumb Code    70  uart4.o(.text)
    UART4_Send                               0x080314c5   Thumb Code    16  uart4.o(.text)
    RS485_Receive_Data                       0x080314d5   Thumb Code    62  uart4.o(.text)
    UART4_Receive                            0x08031513   Thumb Code   124  uart4.o(.text)
    UART4_TR                                 0x0803158f   Thumb Code    72  uart4.o(.text)
    UART5_RxInit                             0x08031601   Thumb Code    52  uart5.o(.text)
    UART5_RxDeInit                           0x08031635   Thumb Code    16  uart5.o(.text)
    UART5_IRQHandler                         0x08031645   Thumb Code    70  uart5.o(.text)
    UART5_Configuration                      0x0803168b   Thumb Code   236  uart5.o(.text)
    DMA_usart5Send                           0x08031777   Thumb Code    74  uart5.o(.text)
    UART5_Send                               0x080317c1   Thumb Code    16  uart5.o(.text)
    UART5_Receive                            0x080317d1   Thumb Code   124  uart5.o(.text)
    UART5_TR                                 0x0803184d   Thumb Code    72  uart5.o(.text)
    DMA_usart6RecvEnable                     0x080318b5   Thumb Code    26  uart6.o(.text)
    USART6_RxInit                            0x080318cf   Thumb Code    52  uart6.o(.text)
    USART6_RxDeInit                          0x08031903   Thumb Code    16  uart6.o(.text)
    USART6_IRQHandler                        0x08031913   Thumb Code    96  uart6.o(.text)
    DMA2_Stream6_IRQHandler                  0x08031973   Thumb Code    48  uart6.o(.text)
    USART6_Configuration                     0x080319a3   Thumb Code   256  uart6.o(.text)
    DMA_usart6Send                           0x08031aa3   Thumb Code   120  uart6.o(.text)
    USART6_Send                              0x08031b1b   Thumb Code    16  uart6.o(.text)
    USART6_Receive                           0x08031b2b   Thumb Code   120  uart6.o(.text)
    USART6_TR                                0x08031ba3   Thumb Code    78  uart6.o(.text)
    SPI_Configuration                        0x08031c21   Thumb Code    16  spix.o(.text)
    SPIx_SetSpeed                            0x08031c31   Thumb Code    74  spix.o(.text)
    SPIx_ReadWriteByte                       0x08031c7b   Thumb Code    68  spix.o(.text)
    SPIx_WriteByte                           0x08031cbf   Thumb Code    30  spix.o(.text)
    EXTI_Configuration                       0x08031cf5   Thumb Code    78  exti.o(.text)
    EXTI15_10_IRQHandler                     0x08031d43   Thumb Code   100  exti.o(.text)
    SPI2_Configuration                       0x08031db1   Thumb Code   284  spi2.o(.text)
    ClearRxBuf                               0x08031edd   Thumb Code     8  spi3.o(.text)
    DoRxCmd                                  0x08031ee5   Thumb Code    40  spi3.o(.text)
    SPI3_Configuration                       0x08031f0d   Thumb Code   238  spi3.o(.text)
    DMA_SPI3Send                             0x08031ffb   Thumb Code    74  spi3.o(.text)
    SPI3_Send                                0x08032045   Thumb Code    92  spi3.o(.text)
    SPI3_ReSend                              0x080320a1   Thumb Code     8  spi3.o(.text)
    SPI3_IRQHandler                          0x080320a9   Thumb Code    98  spi3.o(.text)
    USART_ConfigNull                         0x0803214d   Thumb Code     2  uartx.o(.text)
    CorrectComParam                          0x0803214f   Thumb Code   200  uartx.o(.text)
    ReturnComParam                           0x08032217   Thumb Code   142  uartx.o(.text)
    USART_Configuration                      0x080322a5   Thumb Code   106  uartx.o(.text)
    USARTSet                                 0x0803230f   Thumb Code   198  uartx.o(.text)
    USART_SendNull                           0x080323d5   Thumb Code     2  uartx.o(.text)
    USARTSend                                0x080323d7   Thumb Code    60  uartx.o(.text)
    USART_TRNull                             0x08032413   Thumb Code     6  uartx.o(.text)
    USARTTR                                  0x08032419   Thumb Code    78  uartx.o(.text)
    USARTx_IRQHandler                        0x08032467   Thumb Code   376  uartx.o(.text)
    DMA_Config                               0x080325e5   Thumb Code   126  dmax.o(.text)
    DMA_ConfigDir                            0x08032663   Thumb Code   124  dmax.o(.text)
    DMA_Enable                               0x080326df   Thumb Code    44  dmax.o(.text)
    ETH_MACDMA_Config                        0x08032711   Thumb Code   144  lan8720.o(.text)
    LAN8720_Init                             0x080327c1   Thumb Code   252  lan8720.o(.text)
    LAN8720_Get_Speed                        0x080328bd   Thumb Code    18  lan8720.o(.text)
    ETH_IRQHandler                           0x080328cf   Thumb Code    48  lan8720.o(.text)
    ETH_Rx_Packet                            0x080328ff   Thumb Code   148  lan8720.o(.text)
    ETH_Tx_Packet                            0x08032993   Thumb Code    94  lan8720.o(.text)
    ETH_GetCurrentTxBuffer                   0x080329f1   Thumb Code     8  lan8720.o(.text)
    ETH_Mem_Free                             0x080329f9   Thumb Code    28  lan8720.o(.text)
    ETH_Mem_Malloc                           0x08032a15   Thumb Code    74  lan8720.o(.text)
    ETH_GPIO_Config                          0x08032a5f   Thumb Code   212  lan8720.o(.text)
    ETH_NVIC_Config                          0x08032b33   Thumb Code    32  lan8720.o(.text)
    ETH_BSP_Config                           0x08032c53   Thumb Code    80  lan8720.o(.text)
    Eth_Link_query                           0x08032ca3   Thumb Code    52  lan8720.o(.text)
    ETH_link_callback                        0x08032cd7   Thumb Code   298  lan8720.o(.text)
    FSMC_SRAM_Init                           0x08032e45   Thumb Code   698  sram.o(.text)
    FSMC_SRAM_WriteBuffer                    0x080330ff   Thumb Code    24  sram.o(.text)
    FSMC_SRAM_ReadBuffer                     0x08033117   Thumb Code    22  sram.o(.text)
    fsmc_sram_test                           0x0803312d   Thumb Code    90  sram.o(.text)
    NMI_Handler                              0x0803319d   Thumb Code     2  stm32f4xx_it.o(.text)
    HardFault_Handler                        0x0803319f   Thumb Code    58  stm32f4xx_it.o(.text)
    MemManage_Handler                        0x080331d9   Thumb Code     4  stm32f4xx_it.o(.text)
    BusFault_Handler                         0x080331dd   Thumb Code     4  stm32f4xx_it.o(.text)
    UsageFault_Handler                       0x080331e1   Thumb Code     4  stm32f4xx_it.o(.text)
    SVC_Handler                              0x080331e5   Thumb Code     2  stm32f4xx_it.o(.text)
    DebugMon_Handler                         0x080331e7   Thumb Code     2  stm32f4xx_it.o(.text)
    SystemInit                               0x080332d9   Thumb Code    72  system_stm32f4xx.o(.text)
    SystemCoreClockUpdate                    0x08033321   Thumb Code   174  system_stm32f4xx.o(.text)
    Reset_Handler                            0x08033401   Thumb Code     8  startup_stm32f40_41xxx.o(.text)
    ADC_IRQHandler                           0x0803341b   Thumb Code     0  startup_stm32f40_41xxx.o(.text)
    CAN1_RX0_IRQHandler                      0x0803341b   Thumb Code     0  startup_stm32f40_41xxx.o(.text)
    CAN1_RX1_IRQHandler                      0x0803341b   Thumb Code     0  startup_stm32f40_41xxx.o(.text)
    CAN1_SCE_IRQHandler                      0x0803341b   Thumb Code     0  startup_stm32f40_41xxx.o(.text)
    CAN1_TX_IRQHandler                       0x0803341b   Thumb Code     0  startup_stm32f40_41xxx.o(.text)
    CAN2_RX0_IRQHandler                      0x0803341b   Thumb Code     0  startup_stm32f40_41xxx.o(.text)
    CAN2_RX1_IRQHandler                      0x0803341b   Thumb Code     0  startup_stm32f40_41xxx.o(.text)
    CAN2_SCE_IRQHandler                      0x0803341b   Thumb Code     0  startup_stm32f40_41xxx.o(.text)
    CAN2_TX_IRQHandler                       0x0803341b   Thumb Code     0  startup_stm32f40_41xxx.o(.text)
    CRYP_IRQHandler                          0x0803341b   Thumb Code     0  startup_stm32f40_41xxx.o(.text)
    DCMI_IRQHandler                          0x0803341b   Thumb Code     0  startup_stm32f40_41xxx.o(.text)
    DMA1_Stream0_IRQHandler                  0x0803341b   Thumb Code     0  startup_stm32f40_41xxx.o(.text)
    DMA1_Stream1_IRQHandler                  0x0803341b   Thumb Code     0  startup_stm32f40_41xxx.o(.text)
    DMA1_Stream2_IRQHandler                  0x0803341b   Thumb Code     0  startup_stm32f40_41xxx.o(.text)
    DMA1_Stream3_IRQHandler                  0x0803341b   Thumb Code     0  startup_stm32f40_41xxx.o(.text)
    DMA1_Stream4_IRQHandler                  0x0803341b   Thumb Code     0  startup_stm32f40_41xxx.o(.text)
    DMA1_Stream5_IRQHandler                  0x0803341b   Thumb Code     0  startup_stm32f40_41xxx.o(.text)
    DMA1_Stream6_IRQHandler                  0x0803341b   Thumb Code     0  startup_stm32f40_41xxx.o(.text)
    DMA1_Stream7_IRQHandler                  0x0803341b   Thumb Code     0  startup_stm32f40_41xxx.o(.text)
    DMA2_Stream0_IRQHandler                  0x0803341b   Thumb Code     0  startup_stm32f40_41xxx.o(.text)
    DMA2_Stream1_IRQHandler                  0x0803341b   Thumb Code     0  startup_stm32f40_41xxx.o(.text)
    DMA2_Stream2_IRQHandler                  0x0803341b   Thumb Code     0  startup_stm32f40_41xxx.o(.text)
    DMA2_Stream3_IRQHandler                  0x0803341b   Thumb Code     0  startup_stm32f40_41xxx.o(.text)
    DMA2_Stream4_IRQHandler                  0x0803341b   Thumb Code     0  startup_stm32f40_41xxx.o(.text)
    DMA2_Stream5_IRQHandler                  0x0803341b   Thumb Code     0  startup_stm32f40_41xxx.o(.text)
    ETH_WKUP_IRQHandler                      0x0803341b   Thumb Code     0  startup_stm32f40_41xxx.o(.text)
    EXTI0_IRQHandler                         0x0803341b   Thumb Code     0  startup_stm32f40_41xxx.o(.text)
    EXTI1_IRQHandler                         0x0803341b   Thumb Code     0  startup_stm32f40_41xxx.o(.text)
    EXTI2_IRQHandler                         0x0803341b   Thumb Code     0  startup_stm32f40_41xxx.o(.text)
    EXTI3_IRQHandler                         0x0803341b   Thumb Code     0  startup_stm32f40_41xxx.o(.text)
    EXTI4_IRQHandler                         0x0803341b   Thumb Code     0  startup_stm32f40_41xxx.o(.text)
    EXTI9_5_IRQHandler                       0x0803341b   Thumb Code     0  startup_stm32f40_41xxx.o(.text)
    FLASH_IRQHandler                         0x0803341b   Thumb Code     0  startup_stm32f40_41xxx.o(.text)
    FPU_IRQHandler                           0x0803341b   Thumb Code     0  startup_stm32f40_41xxx.o(.text)
    FSMC_IRQHandler                          0x0803341b   Thumb Code     0  startup_stm32f40_41xxx.o(.text)
    HASH_RNG_IRQHandler                      0x0803341b   Thumb Code     0  startup_stm32f40_41xxx.o(.text)
    I2C1_ER_IRQHandler                       0x0803341b   Thumb Code     0  startup_stm32f40_41xxx.o(.text)
    I2C1_EV_IRQHandler                       0x0803341b   Thumb Code     0  startup_stm32f40_41xxx.o(.text)
    I2C2_ER_IRQHandler                       0x0803341b   Thumb Code     0  startup_stm32f40_41xxx.o(.text)
    I2C2_EV_IRQHandler                       0x0803341b   Thumb Code     0  startup_stm32f40_41xxx.o(.text)
    I2C3_ER_IRQHandler                       0x0803341b   Thumb Code     0  startup_stm32f40_41xxx.o(.text)
    I2C3_EV_IRQHandler                       0x0803341b   Thumb Code     0  startup_stm32f40_41xxx.o(.text)
    OTG_FS_IRQHandler                        0x0803341b   Thumb Code     0  startup_stm32f40_41xxx.o(.text)
    OTG_FS_WKUP_IRQHandler                   0x0803341b   Thumb Code     0  startup_stm32f40_41xxx.o(.text)
    OTG_HS_EP1_IN_IRQHandler                 0x0803341b   Thumb Code     0  startup_stm32f40_41xxx.o(.text)
    OTG_HS_EP1_OUT_IRQHandler                0x0803341b   Thumb Code     0  startup_stm32f40_41xxx.o(.text)
    OTG_HS_IRQHandler                        0x0803341b   Thumb Code     0  startup_stm32f40_41xxx.o(.text)
    OTG_HS_WKUP_IRQHandler                   0x0803341b   Thumb Code     0  startup_stm32f40_41xxx.o(.text)
    PVD_IRQHandler                           0x0803341b   Thumb Code     0  startup_stm32f40_41xxx.o(.text)
    RCC_IRQHandler                           0x0803341b   Thumb Code     0  startup_stm32f40_41xxx.o(.text)
    RTC_Alarm_IRQHandler                     0x0803341b   Thumb Code     0  startup_stm32f40_41xxx.o(.text)
    RTC_WKUP_IRQHandler                      0x0803341b   Thumb Code     0  startup_stm32f40_41xxx.o(.text)
    SDIO_IRQHandler                          0x0803341b   Thumb Code     0  startup_stm32f40_41xxx.o(.text)
    SPI1_IRQHandler                          0x0803341b   Thumb Code     0  startup_stm32f40_41xxx.o(.text)
    SPI2_IRQHandler                          0x0803341b   Thumb Code     0  startup_stm32f40_41xxx.o(.text)
    TAMP_STAMP_IRQHandler                    0x0803341b   Thumb Code     0  startup_stm32f40_41xxx.o(.text)
    TIM1_BRK_TIM9_IRQHandler                 0x0803341b   Thumb Code     0  startup_stm32f40_41xxx.o(.text)
    TIM1_CC_IRQHandler                       0x0803341b   Thumb Code     0  startup_stm32f40_41xxx.o(.text)
    TIM1_TRG_COM_TIM11_IRQHandler            0x0803341b   Thumb Code     0  startup_stm32f40_41xxx.o(.text)
    TIM1_UP_TIM10_IRQHandler                 0x0803341b   Thumb Code     0  startup_stm32f40_41xxx.o(.text)
    TIM2_IRQHandler                          0x0803341b   Thumb Code     0  startup_stm32f40_41xxx.o(.text)
    TIM4_IRQHandler                          0x0803341b   Thumb Code     0  startup_stm32f40_41xxx.o(.text)
    TIM5_IRQHandler                          0x0803341b   Thumb Code     0  startup_stm32f40_41xxx.o(.text)
    TIM6_DAC_IRQHandler                      0x0803341b   Thumb Code     0  startup_stm32f40_41xxx.o(.text)
    TIM7_IRQHandler                          0x0803341b   Thumb Code     0  startup_stm32f40_41xxx.o(.text)
    TIM8_BRK_TIM12_IRQHandler                0x0803341b   Thumb Code     0  startup_stm32f40_41xxx.o(.text)
    TIM8_CC_IRQHandler                       0x0803341b   Thumb Code     0  startup_stm32f40_41xxx.o(.text)
    TIM8_TRG_COM_TIM14_IRQHandler            0x0803341b   Thumb Code     0  startup_stm32f40_41xxx.o(.text)
    TIM8_UP_TIM13_IRQHandler                 0x0803341b   Thumb Code     0  startup_stm32f40_41xxx.o(.text)
    WWDG_IRQHandler                          0x0803341b   Thumb Code     0  startup_stm32f40_41xxx.o(.text)
    __user_initial_stackheap                 0x0803341d   Thumb Code     0  startup_stm32f40_41xxx.o(.text)
    RCC_DeInit                               0x08033441   Thumb Code    82  stm32f4xx_rcc.o(.text)
    RCC_HSEConfig                            0x08033493   Thumb Code    14  stm32f4xx_rcc.o(.text)
    RCC_GetFlagStatus                        0x080334a1   Thumb Code    60  stm32f4xx_rcc.o(.text)
    RCC_WaitForHSEStartUp                    0x080334dd   Thumb Code    56  stm32f4xx_rcc.o(.text)
    RCC_AdjustHSICalibrationValue            0x08033515   Thumb Code    20  stm32f4xx_rcc.o(.text)
    RCC_HSICmd                               0x08033529   Thumb Code     6  stm32f4xx_rcc.o(.text)
    RCC_LSEConfig                            0x0803352f   Thumb Code    46  stm32f4xx_rcc.o(.text)
    RCC_LSICmd                               0x0803355d   Thumb Code     6  stm32f4xx_rcc.o(.text)
    RCC_PLLConfig                            0x08033563   Thumb Code    32  stm32f4xx_rcc.o(.text)
    RCC_PLLCmd                               0x08033583   Thumb Code     6  stm32f4xx_rcc.o(.text)
    RCC_PLLI2SConfig                         0x08033589   Thumb Code    14  stm32f4xx_rcc.o(.text)
    RCC_PLLI2SCmd                            0x08033597   Thumb Code     6  stm32f4xx_rcc.o(.text)
    RCC_PLLSAIConfig                         0x0803359d   Thumb Code    20  stm32f4xx_rcc.o(.text)
    RCC_PLLSAICmd                            0x080335b1   Thumb Code     6  stm32f4xx_rcc.o(.text)
    RCC_ClockSecuritySystemCmd               0x080335b7   Thumb Code     6  stm32f4xx_rcc.o(.text)
    RCC_MCO1Config                           0x080335bd   Thumb Code    28  stm32f4xx_rcc.o(.text)
    RCC_MCO2Config                           0x080335d9   Thumb Code    28  stm32f4xx_rcc.o(.text)
    RCC_SYSCLKConfig                         0x080335f5   Thumb Code    20  stm32f4xx_rcc.o(.text)
    RCC_GetSYSCLKSource                      0x08033609   Thumb Code    12  stm32f4xx_rcc.o(.text)
    RCC_HCLKConfig                           0x08033615   Thumb Code    20  stm32f4xx_rcc.o(.text)
    RCC_PCLK1Config                          0x08033629   Thumb Code    20  stm32f4xx_rcc.o(.text)
    RCC_PCLK2Config                          0x0803363d   Thumb Code    22  stm32f4xx_rcc.o(.text)
    RCC_GetClocksFreq                        0x08033653   Thumb Code   222  stm32f4xx_rcc.o(.text)
    RCC_RTCCLKConfig                         0x08033731   Thumb Code    54  stm32f4xx_rcc.o(.text)
    RCC_RTCCLKCmd                            0x08033767   Thumb Code     8  stm32f4xx_rcc.o(.text)
    RCC_BackupResetCmd                       0x0803376f   Thumb Code     8  stm32f4xx_rcc.o(.text)
    RCC_I2SCLKConfig                         0x08033777   Thumb Code     6  stm32f4xx_rcc.o(.text)
    RCC_SAIPLLI2SClkDivConfig                0x0803377d   Thumb Code    26  stm32f4xx_rcc.o(.text)
    RCC_SAIPLLSAIClkDivConfig                0x08033797   Thumb Code    28  stm32f4xx_rcc.o(.text)
    RCC_SAIBlockACLKConfig                   0x080337b3   Thumb Code    20  stm32f4xx_rcc.o(.text)
    RCC_SAIBlockBCLKConfig                   0x080337c7   Thumb Code    20  stm32f4xx_rcc.o(.text)
    RCC_LTDCCLKDivConfig                     0x080337db   Thumb Code    20  stm32f4xx_rcc.o(.text)
    RCC_TIMCLKPresConfig                     0x080337ef   Thumb Code     6  stm32f4xx_rcc.o(.text)
    RCC_AHB1PeriphClockCmd                   0x080337f5   Thumb Code    34  stm32f4xx_rcc.o(.text)
    RCC_AHB2PeriphClockCmd                   0x08033817   Thumb Code    78  stm32f4xx_rcc.o(.text)
    RCC_AHB3PeriphClockCmd                   0x08033865   Thumb Code    34  stm32f4xx_rcc.o(.text)
    RCC_APB1PeriphClockCmd                   0x08033887   Thumb Code    34  stm32f4xx_rcc.o(.text)
    RCC_APB2PeriphClockCmd                   0x080338a9   Thumb Code    34  stm32f4xx_rcc.o(.text)
    RCC_AHB1PeriphResetCmd                   0x080338cb   Thumb Code    34  stm32f4xx_rcc.o(.text)
    RCC_AHB2PeriphResetCmd                   0x080338ed   Thumb Code    34  stm32f4xx_rcc.o(.text)
    RCC_AHB3PeriphResetCmd                   0x0803390f   Thumb Code    34  stm32f4xx_rcc.o(.text)
    RCC_APB1PeriphResetCmd                   0x08033931   Thumb Code    34  stm32f4xx_rcc.o(.text)
    RCC_APB2PeriphResetCmd                   0x08033953   Thumb Code    34  stm32f4xx_rcc.o(.text)
    RCC_AHB1PeriphClockLPModeCmd             0x08033975   Thumb Code    34  stm32f4xx_rcc.o(.text)
    RCC_AHB2PeriphClockLPModeCmd             0x08033997   Thumb Code    34  stm32f4xx_rcc.o(.text)
    RCC_AHB3PeriphClockLPModeCmd             0x080339b9   Thumb Code    34  stm32f4xx_rcc.o(.text)
    RCC_APB1PeriphClockLPModeCmd             0x080339db   Thumb Code    34  stm32f4xx_rcc.o(.text)
    RCC_APB2PeriphClockLPModeCmd             0x080339fd   Thumb Code    34  stm32f4xx_rcc.o(.text)
    RCC_LSEModeConfig                        0x08033a1f   Thumb Code    40  stm32f4xx_rcc.o(.text)
    RCC_ITConfig                             0x08033a47   Thumb Code    34  stm32f4xx_rcc.o(.text)
    RCC_ClearFlag                            0x08033a69   Thumb Code    18  stm32f4xx_rcc.o(.text)
    RCC_GetITStatus                          0x08033a7b   Thumb Code    22  stm32f4xx_rcc.o(.text)
    RCC_ClearITPendingBit                    0x08033a91   Thumb Code     8  stm32f4xx_rcc.o(.text)
    NVIC_PriorityGroupConfig                 0x08033a9d   Thumb Code    10  misc.o(.text)
    NVIC_Init                                0x08033aa7   Thumb Code   106  misc.o(.text)
    NVIC_SetVectorTable                      0x08033b11   Thumb Code    14  misc.o(.text)
    NVIC_SystemLPConfig                      0x08033b1f   Thumb Code    34  misc.o(.text)
    SysTick_CLKSourceConfig                  0x08033b41   Thumb Code    40  misc.o(.text)
    GPIO_DeInit                              0x08033b7d   Thumb Code   268  stm32f4xx_gpio.o(.text)
    GPIO_Init                                0x08033c89   Thumb Code   144  stm32f4xx_gpio.o(.text)
    GPIO_StructInit                          0x08033d19   Thumb Code    18  stm32f4xx_gpio.o(.text)
    GPIO_PinLockConfig                       0x08033d2b   Thumb Code    34  stm32f4xx_gpio.o(.text)
    GPIO_ReadInputDataBit                    0x08033d4d   Thumb Code    18  stm32f4xx_gpio.o(.text)
    GPIO_ReadInputData                       0x08033d5f   Thumb Code     8  stm32f4xx_gpio.o(.text)
    GPIO_ReadOutputDataBit                   0x08033d67   Thumb Code    18  stm32f4xx_gpio.o(.text)
    GPIO_ReadOutputData                      0x08033d79   Thumb Code     8  stm32f4xx_gpio.o(.text)
    GPIO_SetBits                             0x08033d81   Thumb Code     4  stm32f4xx_gpio.o(.text)
    GPIO_ResetBits                           0x08033d85   Thumb Code     4  stm32f4xx_gpio.o(.text)
    GPIO_WriteBit                            0x08033d89   Thumb Code    10  stm32f4xx_gpio.o(.text)
    GPIO_Write                               0x08033d93   Thumb Code     4  stm32f4xx_gpio.o(.text)
    GPIO_ToggleBits                          0x08033d97   Thumb Code     8  stm32f4xx_gpio.o(.text)
    GPIO_PinAFConfig                         0x08033d9f   Thumb Code    70  stm32f4xx_gpio.o(.text)
    USART_DeInit                             0x08033e11   Thumb Code   206  stm32f4xx_usart.o(.text)
    USART_Init                               0x08033edf   Thumb Code   204  stm32f4xx_usart.o(.text)
    USART_StructInit                         0x08033fab   Thumb Code    24  stm32f4xx_usart.o(.text)
    USART_ClockInit                          0x08033fc3   Thumb Code    32  stm32f4xx_usart.o(.text)
    USART_ClockStructInit                    0x08033fe3   Thumb Code    12  stm32f4xx_usart.o(.text)
    USART_Cmd                                0x08033fef   Thumb Code    24  stm32f4xx_usart.o(.text)
    USART_SetPrescaler                       0x08034007   Thumb Code    16  stm32f4xx_usart.o(.text)
    USART_OverSampling8Cmd                   0x08034017   Thumb Code    22  stm32f4xx_usart.o(.text)
    USART_OneBitMethodCmd                    0x0803402d   Thumb Code    24  stm32f4xx_usart.o(.text)
    USART_SendData                           0x08034045   Thumb Code     8  stm32f4xx_usart.o(.text)
    USART_ReceiveData                        0x0803404d   Thumb Code    10  stm32f4xx_usart.o(.text)
    USART_SetAddress                         0x08034057   Thumb Code    18  stm32f4xx_usart.o(.text)
    USART_ReceiverWakeUpCmd                  0x08034069   Thumb Code    24  stm32f4xx_usart.o(.text)
    USART_WakeUpConfig                       0x08034081   Thumb Code    18  stm32f4xx_usart.o(.text)
    USART_LINBreakDetectLengthConfig         0x08034093   Thumb Code    18  stm32f4xx_usart.o(.text)
    USART_LINCmd                             0x080340a5   Thumb Code    24  stm32f4xx_usart.o(.text)
    USART_SendBreak                          0x080340bd   Thumb Code    10  stm32f4xx_usart.o(.text)
    USART_HalfDuplexCmd                      0x080340c7   Thumb Code    24  stm32f4xx_usart.o(.text)
    USART_SetGuardTime                       0x080340df   Thumb Code    16  stm32f4xx_usart.o(.text)
    USART_SmartCardCmd                       0x080340ef   Thumb Code    24  stm32f4xx_usart.o(.text)
    USART_SmartCardNACKCmd                   0x08034107   Thumb Code    24  stm32f4xx_usart.o(.text)
    USART_IrDAConfig                         0x0803411f   Thumb Code    18  stm32f4xx_usart.o(.text)
    USART_IrDACmd                            0x08034131   Thumb Code    24  stm32f4xx_usart.o(.text)
    USART_DMACmd                             0x08034149   Thumb Code    18  stm32f4xx_usart.o(.text)
    USART_ITConfig                           0x0803415b   Thumb Code    74  stm32f4xx_usart.o(.text)
    USART_GetFlagStatus                      0x080341a5   Thumb Code    26  stm32f4xx_usart.o(.text)
    USART_ClearFlag                          0x080341bf   Thumb Code    18  stm32f4xx_usart.o(.text)
    USART_GetITStatus                        0x080341d1   Thumb Code   118  stm32f4xx_usart.o(.text)
    USART_ClearITPendingBit                  0x08034247   Thumb Code    30  stm32f4xx_usart.o(.text)
    SPI_I2S_DeInit                           0x08034265   Thumb Code   152  stm32f4xx_spi.o(.text)
    SPI_Init                                 0x080342fd   Thumb Code    60  stm32f4xx_spi.o(.text)
    I2S_Init                                 0x08034339   Thumb Code   396  stm32f4xx_spi.o(.text)
    SPI_StructInit                           0x080344c5   Thumb Code    24  stm32f4xx_spi.o(.text)
    I2S_StructInit                           0x080344dd   Thumb Code    20  stm32f4xx_spi.o(.text)
    SPI_Cmd                                  0x080344f1   Thumb Code    24  stm32f4xx_spi.o(.text)
    I2S_Cmd                                  0x08034509   Thumb Code    24  stm32f4xx_spi.o(.text)
    SPI_DataSizeConfig                       0x08034521   Thumb Code    18  stm32f4xx_spi.o(.text)
    SPI_BiDirectionalLineConfig              0x08034533   Thumb Code    28  stm32f4xx_spi.o(.text)
    SPI_NSSInternalSoftwareConfig            0x0803454f   Thumb Code    30  stm32f4xx_spi.o(.text)
    SPI_SSOutputCmd                          0x0803456d   Thumb Code    24  stm32f4xx_spi.o(.text)
    SPI_TIModeCmd                            0x08034585   Thumb Code    24  stm32f4xx_spi.o(.text)
    I2S_FullDuplexConfig                     0x0803459d   Thumb Code    80  stm32f4xx_spi.o(.text)
    SPI_I2S_ReceiveData                      0x080345ed   Thumb Code     6  stm32f4xx_spi.o(.text)
    SPI_I2S_SendData                         0x080345f3   Thumb Code     4  stm32f4xx_spi.o(.text)
    SPI_CalculateCRC                         0x080345f7   Thumb Code    24  stm32f4xx_spi.o(.text)
    SPI_TransmitCRC                          0x0803460f   Thumb Code    10  stm32f4xx_spi.o(.text)
    SPI_GetCRC                               0x08034619   Thumb Code    16  stm32f4xx_spi.o(.text)
    SPI_GetCRCPolynomial                     0x08034629   Thumb Code     6  stm32f4xx_spi.o(.text)
    SPI_I2S_DMACmd                           0x0803462f   Thumb Code    18  stm32f4xx_spi.o(.text)
    SPI_I2S_ITConfig                         0x08034641   Thumb Code    68  stm32f4xx_spi.o(.text)
    SPI_I2S_GetFlagStatus                    0x08034685   Thumb Code    18  stm32f4xx_spi.o(.text)
    SPI_I2S_ClearFlag                        0x08034697   Thumb Code     6  stm32f4xx_spi.o(.text)
    SPI_I2S_GetITStatus                      0x0803469d   Thumb Code    52  stm32f4xx_spi.o(.text)
    SPI_I2S_ClearITPendingBit                0x080346d1   Thumb Code    20  stm32f4xx_spi.o(.text)
    TIM_DeInit                               0x080346e5   Thumb Code   346  stm32f4xx_tim.o(.text)
    TIM_TimeBaseInit                         0x0803483f   Thumb Code   104  stm32f4xx_tim.o(.text)
    TIM_TimeBaseStructInit                   0x080348a7   Thumb Code    18  stm32f4xx_tim.o(.text)
    TIM_PrescalerConfig                      0x080348b9   Thumb Code     6  stm32f4xx_tim.o(.text)
    TIM_CounterModeConfig                    0x080348bf   Thumb Code    18  stm32f4xx_tim.o(.text)
    TIM_SetCounter                           0x080348d1   Thumb Code     4  stm32f4xx_tim.o(.text)
    TIM_SetAutoreload                        0x080348d5   Thumb Code     4  stm32f4xx_tim.o(.text)
    TIM_GetCounter                           0x080348d9   Thumb Code     6  stm32f4xx_tim.o(.text)
    TIM_GetPrescaler                         0x080348df   Thumb Code     6  stm32f4xx_tim.o(.text)
    TIM_UpdateDisableConfig                  0x080348e5   Thumb Code    24  stm32f4xx_tim.o(.text)
    TIM_UpdateRequestConfig                  0x080348fd   Thumb Code    24  stm32f4xx_tim.o(.text)
    TIM_ARRPreloadConfig                     0x08034915   Thumb Code    24  stm32f4xx_tim.o(.text)
    TIM_SelectOnePulseMode                   0x0803492d   Thumb Code    18  stm32f4xx_tim.o(.text)
    TIM_SetClockDivision                     0x0803493f   Thumb Code    18  stm32f4xx_tim.o(.text)
    TIM_Cmd                                  0x08034951   Thumb Code    24  stm32f4xx_tim.o(.text)
    TIM_OC1Init                              0x08034969   Thumb Code   114  stm32f4xx_tim.o(.text)
    TIM_OC2Init                              0x080349db   Thumb Code   154  stm32f4xx_tim.o(.text)
    TIM_OC3Init                              0x08034a75   Thumb Code   204  stm32f4xx_tim.o(.text)
    TIM_OC4Init                              0x08034b41   Thumb Code   112  stm32f4xx_tim.o(.text)
    TIM_OCStructInit                         0x08034bb1   Thumb Code    20  stm32f4xx_tim.o(.text)
    TIM_SelectOCxM                           0x08034bc5   Thumb Code    86  stm32f4xx_tim.o(.text)
    TIM_SetCompare1                          0x08034c1b   Thumb Code     4  stm32f4xx_tim.o(.text)
    TIM_SetCompare2                          0x08034c1f   Thumb Code     4  stm32f4xx_tim.o(.text)
    TIM_SetCompare3                          0x08034c23   Thumb Code     4  stm32f4xx_tim.o(.text)
    TIM_SetCompare4                          0x08034c27   Thumb Code     4  stm32f4xx_tim.o(.text)
    TIM_ForcedOC1Config                      0x08034c2b   Thumb Code    18  stm32f4xx_tim.o(.text)
    TIM_ForcedOC2Config                      0x08034c3d   Thumb Code    26  stm32f4xx_tim.o(.text)
    TIM_ForcedOC3Config                      0x08034c57   Thumb Code    18  stm32f4xx_tim.o(.text)
    TIM_ForcedOC4Config                      0x08034c69   Thumb Code    26  stm32f4xx_tim.o(.text)
    TIM_OC1PreloadConfig                     0x08034c83   Thumb Code    18  stm32f4xx_tim.o(.text)
    TIM_OC2PreloadConfig                     0x08034c95   Thumb Code    26  stm32f4xx_tim.o(.text)
    TIM_OC3PreloadConfig                     0x08034caf   Thumb Code    18  stm32f4xx_tim.o(.text)
    TIM_OC4PreloadConfig                     0x08034cc1   Thumb Code    26  stm32f4xx_tim.o(.text)
    TIM_OC1FastConfig                        0x08034cdb   Thumb Code    18  stm32f4xx_tim.o(.text)
    TIM_OC2FastConfig                        0x08034ced   Thumb Code    26  stm32f4xx_tim.o(.text)
    TIM_OC3FastConfig                        0x08034d07   Thumb Code    18  stm32f4xx_tim.o(.text)
    TIM_OC4FastConfig                        0x08034d19   Thumb Code    26  stm32f4xx_tim.o(.text)
    TIM_ClearOC1Ref                          0x08034d33   Thumb Code    18  stm32f4xx_tim.o(.text)
    TIM_ClearOC2Ref                          0x08034d45   Thumb Code    24  stm32f4xx_tim.o(.text)
    TIM_ClearOC3Ref                          0x08034d5d   Thumb Code    18  stm32f4xx_tim.o(.text)
    TIM_ClearOC4Ref                          0x08034d6f   Thumb Code    24  stm32f4xx_tim.o(.text)
    TIM_OC1PolarityConfig                    0x08034d87   Thumb Code    18  stm32f4xx_tim.o(.text)
    TIM_OC1NPolarityConfig                   0x08034d99   Thumb Code    18  stm32f4xx_tim.o(.text)
    TIM_OC2PolarityConfig                    0x08034dab   Thumb Code    26  stm32f4xx_tim.o(.text)
    TIM_OC2NPolarityConfig                   0x08034dc5   Thumb Code    26  stm32f4xx_tim.o(.text)
    TIM_OC3PolarityConfig                    0x08034ddf   Thumb Code    26  stm32f4xx_tim.o(.text)
    TIM_OC3NPolarityConfig                   0x08034df9   Thumb Code    26  stm32f4xx_tim.o(.text)
    TIM_OC4PolarityConfig                    0x08034e13   Thumb Code    26  stm32f4xx_tim.o(.text)
    TIM_CCxCmd                               0x08034e2d   Thumb Code    30  stm32f4xx_tim.o(.text)
    TIM_CCxNCmd                              0x08034e4b   Thumb Code    30  stm32f4xx_tim.o(.text)
    TIM_SetIC4Prescaler                      0x08034e69   Thumb Code    26  stm32f4xx_tim.o(.text)
    TIM_SetIC3Prescaler                      0x08034ed3   Thumb Code    18  stm32f4xx_tim.o(.text)
    TIM_SetIC2Prescaler                      0x08034f2d   Thumb Code    26  stm32f4xx_tim.o(.text)
    TIM_SetIC1Prescaler                      0x08034fa1   Thumb Code    18  stm32f4xx_tim.o(.text)
    TIM_ICInit                               0x08034fed   Thumb Code   110  stm32f4xx_tim.o(.text)
    TIM_ICStructInit                         0x0803505b   Thumb Code    18  stm32f4xx_tim.o(.text)
    TIM_PWMIConfig                           0x0803506d   Thumb Code   124  stm32f4xx_tim.o(.text)
    TIM_GetCapture1                          0x080350e9   Thumb Code     6  stm32f4xx_tim.o(.text)
    TIM_GetCapture2                          0x080350ef   Thumb Code     6  stm32f4xx_tim.o(.text)
    TIM_GetCapture3                          0x080350f5   Thumb Code     6  stm32f4xx_tim.o(.text)
    TIM_GetCapture4                          0x080350fb   Thumb Code     6  stm32f4xx_tim.o(.text)
    TIM_BDTRConfig                           0x08035101   Thumb Code    32  stm32f4xx_tim.o(.text)
    TIM_BDTRStructInit                       0x08035121   Thumb Code    18  stm32f4xx_tim.o(.text)
    TIM_CtrlPWMOutputs                       0x08035133   Thumb Code    30  stm32f4xx_tim.o(.text)
    TIM_SelectCOM                            0x08035151   Thumb Code    24  stm32f4xx_tim.o(.text)
    TIM_CCPreloadControl                     0x08035169   Thumb Code    24  stm32f4xx_tim.o(.text)
    TIM_ITConfig                             0x08035181   Thumb Code    18  stm32f4xx_tim.o(.text)
    TIM_GenerateEvent                        0x08035193   Thumb Code     4  stm32f4xx_tim.o(.text)
    TIM_GetFlagStatus                        0x08035197   Thumb Code    18  stm32f4xx_tim.o(.text)
    TIM_ClearFlag                            0x080351a9   Thumb Code     6  stm32f4xx_tim.o(.text)
    TIM_GetITStatus                          0x080351af   Thumb Code    34  stm32f4xx_tim.o(.text)
    TIM_ClearITPendingBit                    0x080351d1   Thumb Code     6  stm32f4xx_tim.o(.text)
    TIM_DMAConfig                            0x080351d7   Thumb Code    10  stm32f4xx_tim.o(.text)
    TIM_DMACmd                               0x080351e1   Thumb Code    18  stm32f4xx_tim.o(.text)
    TIM_SelectCCDMA                          0x080351f3   Thumb Code    24  stm32f4xx_tim.o(.text)
    TIM_InternalClockConfig                  0x0803520b   Thumb Code    12  stm32f4xx_tim.o(.text)
    TIM_SelectInputTrigger                   0x08035217   Thumb Code    18  stm32f4xx_tim.o(.text)
    TIM_ITRxExternalClockConfig              0x08035229   Thumb Code    24  stm32f4xx_tim.o(.text)
    TIM_TIxExternalClockConfig               0x08035241   Thumb Code    62  stm32f4xx_tim.o(.text)
    TIM_ETRConfig                            0x0803527f   Thumb Code    28  stm32f4xx_tim.o(.text)
    TIM_ETRClockMode1Config                  0x0803529b   Thumb Code    54  stm32f4xx_tim.o(.text)
    TIM_ETRClockMode2Config                  0x080352d1   Thumb Code    32  stm32f4xx_tim.o(.text)
    TIM_SelectOutputTrigger                  0x080352f1   Thumb Code    18  stm32f4xx_tim.o(.text)
    TIM_SelectSlaveMode                      0x08035303   Thumb Code    18  stm32f4xx_tim.o(.text)
    TIM_SelectMasterSlaveMode                0x08035315   Thumb Code    18  stm32f4xx_tim.o(.text)
    TIM_EncoderInterfaceConfig               0x08035327   Thumb Code    66  stm32f4xx_tim.o(.text)
    TIM_SelectHallSensor                     0x08035369   Thumb Code    24  stm32f4xx_tim.o(.text)
    TIM_RemapConfig                          0x08035381   Thumb Code     6  stm32f4xx_tim.o(.text)
    DMA_DeInit                               0x08035389   Thumb Code   324  stm32f4xx_dma.o(.text)
    DMA_Init                                 0x080354cd   Thumb Code    82  stm32f4xx_dma.o(.text)
    DMA_StructInit                           0x0803551f   Thumb Code    34  stm32f4xx_dma.o(.text)
    DMA_Cmd                                  0x08035541   Thumb Code    22  stm32f4xx_dma.o(.text)
    DMA_PeriphIncOffsetSizeConfig            0x08035557   Thumb Code    22  stm32f4xx_dma.o(.text)
    DMA_FlowControllerConfig                 0x0803556d   Thumb Code    22  stm32f4xx_dma.o(.text)
    DMA_SetCurrDataCounter                   0x08035583   Thumb Code     4  stm32f4xx_dma.o(.text)
    DMA_GetCurrDataCounter                   0x08035587   Thumb Code     8  stm32f4xx_dma.o(.text)
    DMA_DoubleBufferModeConfig               0x0803558f   Thumb Code    24  stm32f4xx_dma.o(.text)
    DMA_DoubleBufferModeCmd                  0x080355a7   Thumb Code    22  stm32f4xx_dma.o(.text)
    DMA_MemoryTargetConfig                   0x080355bd   Thumb Code    10  stm32f4xx_dma.o(.text)
    DMA_GetCurrentMemoryTarget               0x080355c7   Thumb Code    20  stm32f4xx_dma.o(.text)
    DMA_GetCmdStatus                         0x080355db   Thumb Code    20  stm32f4xx_dma.o(.text)
    DMA_GetFIFOStatus                        0x080355ef   Thumb Code    12  stm32f4xx_dma.o(.text)
    DMA_GetFlagStatus                        0x080355fb   Thumb Code    56  stm32f4xx_dma.o(.text)
    DMA_ClearFlag                            0x08035633   Thumb Code    40  stm32f4xx_dma.o(.text)
    DMA_ITConfig                             0x0803565b   Thumb Code    58  stm32f4xx_dma.o(.text)
    DMA_GetITStatus                          0x08035695   Thumb Code    84  stm32f4xx_dma.o(.text)
    DMA_ClearITPendingBit                    0x080356e9   Thumb Code    40  stm32f4xx_dma.o(.text)
    DAC_DeInit                               0x08035731   Thumb Code    22  stm32f4xx_dac.o(.text)
    DAC_Init                                 0x08035747   Thumb Code    46  stm32f4xx_dac.o(.text)
    DAC_StructInit                           0x08035775   Thumb Code    12  stm32f4xx_dac.o(.text)
    DAC_Cmd                                  0x08035781   Thumb Code    34  stm32f4xx_dac.o(.text)
    DAC_SoftwareTriggerCmd                   0x080357a3   Thumb Code    48  stm32f4xx_dac.o(.text)
    DAC_DualSoftwareTriggerCmd               0x080357d3   Thumb Code    38  stm32f4xx_dac.o(.text)
    DAC_WaveGenerationCmd                    0x080357f9   Thumb Code    36  stm32f4xx_dac.o(.text)
    DAC_SetChannel1Data                      0x0803581d   Thumb Code    26  stm32f4xx_dac.o(.text)
    DAC_SetChannel2Data                      0x08035837   Thumb Code    26  stm32f4xx_dac.o(.text)
    DAC_SetDualChannelData                   0x08035851   Thumb Code    32  stm32f4xx_dac.o(.text)
    DAC_GetDataOutputValue                   0x08035871   Thumb Code    32  stm32f4xx_dac.o(.text)
    DAC_DMACmd                               0x08035891   Thumb Code    38  stm32f4xx_dac.o(.text)
    DAC_ITConfig                             0x080358b7   Thumb Code    36  stm32f4xx_dac.o(.text)
    DAC_GetFlagStatus                        0x080358db   Thumb Code    28  stm32f4xx_dac.o(.text)
    DAC_ClearFlag                            0x080358f7   Thumb Code    12  stm32f4xx_dac.o(.text)
    DAC_GetITStatus                          0x08035903   Thumb Code    44  stm32f4xx_dac.o(.text)
    DAC_ClearITPendingBit                    0x0803592f   Thumb Code    12  stm32f4xx_dac.o(.text)
    ADC_DeInit                               0x08035941   Thumb Code    22  stm32f4xx_adc.o(.text)
    ADC_Init                                 0x08035957   Thumb Code    74  stm32f4xx_adc.o(.text)
    ADC_StructInit                           0x080359a1   Thumb Code    20  stm32f4xx_adc.o(.text)
    ADC_CommonInit                           0x080359b5   Thumb Code    34  stm32f4xx_adc.o(.text)
    ADC_CommonStructInit                     0x080359d7   Thumb Code    12  stm32f4xx_adc.o(.text)
    ADC_Cmd                                  0x080359e3   Thumb Code    22  stm32f4xx_adc.o(.text)
    ADC_AnalogWatchdogCmd                    0x080359f9   Thumb Code    16  stm32f4xx_adc.o(.text)
    ADC_AnalogWatchdogThresholdsConfig       0x08035a09   Thumb Code     6  stm32f4xx_adc.o(.text)
    ADC_AnalogWatchdogSingleChannelConfig    0x08035a0f   Thumb Code    16  stm32f4xx_adc.o(.text)
    ADC_TempSensorVrefintCmd                 0x08035a1f   Thumb Code    34  stm32f4xx_adc.o(.text)
    ADC_VBATCmd                              0x08035a41   Thumb Code    34  stm32f4xx_adc.o(.text)
    ADC_RegularChannelConfig                 0x08035a63   Thumb Code   184  stm32f4xx_adc.o(.text)
    ADC_SoftwareStartConv                    0x08035b1b   Thumb Code    10  stm32f4xx_adc.o(.text)
    ADC_GetSoftwareStartConvStatus           0x08035b25   Thumb Code    20  stm32f4xx_adc.o(.text)
    ADC_EOCOnEachRegularChannelCmd           0x08035b39   Thumb Code    22  stm32f4xx_adc.o(.text)
    ADC_ContinuousModeCmd                    0x08035b4f   Thumb Code    22  stm32f4xx_adc.o(.text)
    ADC_DiscModeChannelCountConfig           0x08035b65   Thumb Code    24  stm32f4xx_adc.o(.text)
    ADC_DiscModeCmd                          0x08035b7d   Thumb Code    22  stm32f4xx_adc.o(.text)
    ADC_GetConversionValue                   0x08035b93   Thumb Code     8  stm32f4xx_adc.o(.text)
    ADC_GetMultiModeConversionValue          0x08035b9b   Thumb Code     8  stm32f4xx_adc.o(.text)
    ADC_DMACmd                               0x08035ba3   Thumb Code    22  stm32f4xx_adc.o(.text)
    ADC_DMARequestAfterLastTransferCmd       0x08035bb9   Thumb Code    22  stm32f4xx_adc.o(.text)
    ADC_MultiModeDMARequestAfterLastTransferCmd 0x08035bcf   Thumb Code    34  stm32f4xx_adc.o(.text)
    ADC_InjectedChannelConfig                0x08035bf1   Thumb Code   130  stm32f4xx_adc.o(.text)
    ADC_InjectedSequencerLengthConfig        0x08035c73   Thumb Code    24  stm32f4xx_adc.o(.text)
    ADC_SetInjectedOffset                    0x08035c8b   Thumb Code    20  stm32f4xx_adc.o(.text)
    ADC_ExternalTrigInjectedConvConfig       0x08035c9f   Thumb Code    16  stm32f4xx_adc.o(.text)
    ADC_ExternalTrigInjectedConvEdgeConfig   0x08035caf   Thumb Code    16  stm32f4xx_adc.o(.text)
    ADC_SoftwareStartInjectedConv            0x08035cbf   Thumb Code    10  stm32f4xx_adc.o(.text)
    ADC_GetSoftwareStartInjectedConvCmdStatus 0x08035cc9   Thumb Code    20  stm32f4xx_adc.o(.text)
    ADC_AutoInjectedConvCmd                  0x08035cdd   Thumb Code    22  stm32f4xx_adc.o(.text)
    ADC_InjectedDiscModeCmd                  0x08035cf3   Thumb Code    22  stm32f4xx_adc.o(.text)
    ADC_GetInjectedConversionValue           0x08035d09   Thumb Code    28  stm32f4xx_adc.o(.text)
    ADC_ITConfig                             0x08035d25   Thumb Code    56  stm32f4xx_adc.o(.text)
    ADC_GetFlagStatus                        0x08035d5d   Thumb Code    18  stm32f4xx_adc.o(.text)
    ADC_ClearFlag                            0x08035d6f   Thumb Code     6  stm32f4xx_adc.o(.text)
    ADC_GetITStatus                          0x08035d75   Thumb Code    38  stm32f4xx_adc.o(.text)
    ADC_ClearITPendingBit                    0x08035d9b   Thumb Code    10  stm32f4xx_adc.o(.text)
    EXTI_DeInit                              0x08035da5   Thumb Code    28  stm32f4xx_exti.o(.text)
    EXTI_Init                                0x08035dc1   Thumb Code   142  stm32f4xx_exti.o(.text)
    EXTI_StructInit                          0x08035e4f   Thumb Code    16  stm32f4xx_exti.o(.text)
    EXTI_GenerateSWInterrupt                 0x08035e5f   Thumb Code    16  stm32f4xx_exti.o(.text)
    EXTI_GetFlagStatus                       0x08035e6f   Thumb Code    22  stm32f4xx_exti.o(.text)
    EXTI_ClearFlag                           0x08035e85   Thumb Code     8  stm32f4xx_exti.o(.text)
    EXTI_GetITStatus                         0x08035e8d   Thumb Code    22  stm32f4xx_exti.o(.text)
    EXTI_ClearITPendingBit                   0x08035ea3   Thumb Code     8  stm32f4xx_exti.o(.text)
    SYSCFG_DeInit                            0x08035eb5   Thumb Code    22  stm32f4xx_syscfg.o(.text)
    SYSCFG_MemoryRemapConfig                 0x08035ecb   Thumb Code     6  stm32f4xx_syscfg.o(.text)
    SYSCFG_MemorySwappingBank                0x08035ed1   Thumb Code     6  stm32f4xx_syscfg.o(.text)
    SYSCFG_EXTILineConfig                    0x08035ed7   Thumb Code    66  stm32f4xx_syscfg.o(.text)
    SYSCFG_ETH_MediaInterfaceConfig          0x08035f19   Thumb Code     8  stm32f4xx_syscfg.o(.text)
    SYSCFG_CompensationCellCmd               0x08035f21   Thumb Code     6  stm32f4xx_syscfg.o(.text)
    SYSCFG_GetCompensationCellStatus         0x08035f27   Thumb Code    22  stm32f4xx_syscfg.o(.text)
    ETH_DeInit                               0x08035f49   Thumb Code    22  stm32f4x7_eth.o(.text)
    ETH_StructInit                           0x08035f5f   Thumb Code   178  stm32f4x7_eth.o(.text)
    ETH_WritePHYRegister                     0x08036011   Thumb Code    96  stm32f4x7_eth.o(.text)
    ETH_ReadPHYRegister                      0x08036071   Thumb Code    98  stm32f4x7_eth.o(.text)
    ETH_Init                                 0x080360d3   Thumb Code   748  stm32f4x7_eth.o(.text)
    ETH_DMAReceptionCmd                      0x080363bf   Thumb Code    30  stm32f4x7_eth.o(.text)
    ETH_DMATransmissionCmd                   0x080363dd   Thumb Code    76  stm32f4x7_eth.o(.text)
    ETH_FlushTransmitFIFO                    0x08036429   Thumb Code    38  stm32f4x7_eth.o(.text)
    ETH_MACReceptionCmd                      0x0803644f   Thumb Code    56  stm32f4x7_eth.o(.text)
    ETH_MACTransmissionCmd                   0x08036487   Thumb Code    56  stm32f4x7_eth.o(.text)
    ETH_Start                                0x080364bf   Thumb Code    32  stm32f4x7_eth.o(.text)
    ETH_Stop                                 0x080364df   Thumb Code    32  stm32f4x7_eth.o(.text)
    ETH_GetFlowControlBusyStatus             0x080364ff   Thumb Code    20  stm32f4x7_eth.o(.text)
    ETH_InitiatePauseControlFrame            0x08036513   Thumb Code    38  stm32f4x7_eth.o(.text)
    ETH_BackPressureActivationCmd            0x08036539   Thumb Code    56  stm32f4x7_eth.o(.text)
    ETH_GetMACFlagStatus                     0x08036571   Thumb Code    20  stm32f4x7_eth.o(.text)
    ETH_GetMACITStatus                       0x08036585   Thumb Code    20  stm32f4x7_eth.o(.text)
    ETH_MACITConfig                          0x08036599   Thumb Code    26  stm32f4x7_eth.o(.text)
    ETH_MACAddressConfig                     0x080365b3   Thumb Code    46  stm32f4x7_eth.o(.text)
    ETH_GetMACAddress                        0x080365e1   Thumb Code    36  stm32f4x7_eth.o(.text)
    ETH_MACAddressPerfectFilterCmd           0x08036605   Thumb Code    70  stm32f4x7_eth.o(.text)
    ETH_MACAddressFilterConfig               0x0803664b   Thumb Code    72  stm32f4x7_eth.o(.text)
    ETH_MACAddressMaskBytesFilterConfig      0x08036693   Thumb Code    86  stm32f4x7_eth.o(.text)
    ETH_Get_Received_Frame                   0x080366e9   Thumb Code    64  stm32f4x7_eth.o(.text)
    ETH_Get_Received_Frame_interrupt         0x08036729   Thumb Code   288  stm32f4x7_eth.o(.text)
    ETH_Prepare_Transmit_Descriptors         0x08036849   Thumb Code   194  stm32f4x7_eth.o(.text)
    ETH_DMARxDescChainInit                   0x0803690b   Thumb Code    82  stm32f4x7_eth.o(.text)
    ETH_CheckFrameReceived                   0x0803695d   Thumb Code   210  stm32f4x7_eth.o(.text)
    ETH_DMATxDescChainInit                   0x08036a2f   Thumb Code    70  stm32f4x7_eth.o(.text)
    ETH_GetDMATxDescFlagStatus               0x08036a75   Thumb Code    18  stm32f4x7_eth.o(.text)
    ETH_GetDMATxDescCollisionCount           0x08036a87   Thumb Code    10  stm32f4x7_eth.o(.text)
    ETH_SetDMATxDescOwnBit                   0x08036a91   Thumb Code    10  stm32f4x7_eth.o(.text)
    ETH_DMATxDescTransmitITConfig            0x08036a9b   Thumb Code    22  stm32f4x7_eth.o(.text)
    ETH_DMATxDescFrameSegmentConfig          0x08036ab1   Thumb Code     8  stm32f4x7_eth.o(.text)
    ETH_DMATxDescChecksumInsertionConfig     0x08036ab9   Thumb Code     8  stm32f4x7_eth.o(.text)
    ETH_DMATxDescCRCCmd                      0x08036ac1   Thumb Code    22  stm32f4x7_eth.o(.text)
    ETH_DMATxDescSecondAddressChainedCmd     0x08036ad7   Thumb Code    22  stm32f4x7_eth.o(.text)
    ETH_DMATxDescShortFramePaddingCmd        0x08036aed   Thumb Code    22  stm32f4x7_eth.o(.text)
    ETH_DMATxDescBufferSizeConfig            0x08036b03   Thumb Code    14  stm32f4x7_eth.o(.text)
    ETH_GetDMARxDescFlagStatus               0x08036b11   Thumb Code    18  stm32f4x7_eth.o(.text)
    ETH_GetDMAPTPRxDescExtendedFlagStatus    0x08036b23   Thumb Code    18  stm32f4x7_eth.o(.text)
    ETH_SetDMARxDescOwnBit                   0x08036b35   Thumb Code    10  stm32f4x7_eth.o(.text)
    ETH_GetDMARxDescFrameLength              0x08036b3f   Thumb Code    10  stm32f4x7_eth.o(.text)
    ETH_DMARxDescReceiveITConfig             0x08036b49   Thumb Code    22  stm32f4x7_eth.o(.text)
    ETH_GetDMARxDescBufferSize               0x08036b5f   Thumb Code    20  stm32f4x7_eth.o(.text)
    ETH_GetRxPktSize                         0x08036b73   Thumb Code    42  stm32f4x7_eth.o(.text)
    ETH_EnhancedDescriptorCmd                0x08036b9d   Thumb Code    56  stm32f4x7_eth.o(.text)
    ETH_SoftwareReset                        0x08036bd5   Thumb Code    14  stm32f4x7_eth.o(.text)
    ETH_GetSoftwareResetStatus               0x08036be3   Thumb Code    20  stm32f4x7_eth.o(.text)
    ETH_GetDMAFlagStatus                     0x08036bf7   Thumb Code    42  stm32f4x7_eth.o(.text)
    ETH_DMAClearFlag                         0x08036c21   Thumb Code     6  stm32f4x7_eth.o(.text)
    ETH_DMAITConfig                          0x08036c27   Thumb Code    26  stm32f4x7_eth.o(.text)
    ETH_GetDMAITStatus                       0x08036c41   Thumb Code    20  stm32f4x7_eth.o(.text)
    ETH_DMAClearITPendingBit                 0x08036c55   Thumb Code     6  stm32f4x7_eth.o(.text)
    ETH_GetTransmitProcessState              0x08036c5b   Thumb Code    10  stm32f4x7_eth.o(.text)
    ETH_GetReceiveProcessState               0x08036c65   Thumb Code    10  stm32f4x7_eth.o(.text)
    ETH_GetFlushTransmitFIFOStatus           0x08036c6f   Thumb Code    20  stm32f4x7_eth.o(.text)
    ETH_GetDMAOverflowStatus                 0x08036c83   Thumb Code    20  stm32f4x7_eth.o(.text)
    ETH_GetRxOverflowMissedFrameCounter      0x08036c97   Thumb Code    10  stm32f4x7_eth.o(.text)
    ETH_GetBufferUnavailableMissedFrameCounter 0x08036ca1   Thumb Code     8  stm32f4x7_eth.o(.text)
    ETH_GetCurrentTxDescStartAddress         0x08036ca9   Thumb Code     6  stm32f4x7_eth.o(.text)
    ETH_GetCurrentRxDescStartAddress         0x08036caf   Thumb Code     6  stm32f4x7_eth.o(.text)
    ETH_GetCurrentTxBufferAddress            0x08036cb5   Thumb Code     6  stm32f4x7_eth.o(.text)
    ETH_GetCurrentRxBufferAddress            0x08036cbb   Thumb Code     6  stm32f4x7_eth.o(.text)
    ETH_ResumeDMATransmission                0x08036cc1   Thumb Code     8  stm32f4x7_eth.o(.text)
    ETH_ResumeDMAReception                   0x08036cc9   Thumb Code     8  stm32f4x7_eth.o(.text)
    ETH_SetReceiveWatchdogTimer              0x08036cd1   Thumb Code     6  stm32f4x7_eth.o(.text)
    ETH_PHYLoopBackCmd                       0x08036cd7   Thumb Code    52  stm32f4x7_eth.o(.text)
    ETH_ResetWakeUpFrameFilterRegisterPointer 0x08036d0b   Thumb Code    38  stm32f4x7_eth.o(.text)
    ETH_SetWakeUpFrameFilterRegister         0x08036d31   Thumb Code    48  stm32f4x7_eth.o(.text)
    ETH_GlobalUnicastWakeUpCmd               0x08036d61   Thumb Code    56  stm32f4x7_eth.o(.text)
    ETH_GetPMTFlagStatus                     0x08036d99   Thumb Code    20  stm32f4x7_eth.o(.text)
    ETH_WakeUpFrameDetectionCmd              0x08036dad   Thumb Code    56  stm32f4x7_eth.o(.text)
    ETH_MagicPacketDetectionCmd              0x08036de5   Thumb Code    56  stm32f4x7_eth.o(.text)
    ETH_PowerDownCmd                         0x08036e1d   Thumb Code    56  stm32f4x7_eth.o(.text)
    ETH_MMCCounterFullPreset                 0x08036e55   Thumb Code    16  stm32f4x7_eth.o(.text)
    ETH_MMCCounterHalfPreset                 0x08036e65   Thumb Code    30  stm32f4x7_eth.o(.text)
    ETH_MMCCounterFreezeCmd                  0x08036e83   Thumb Code    34  stm32f4x7_eth.o(.text)
    ETH_MMCResetOnReadCmd                    0x08036ea5   Thumb Code    34  stm32f4x7_eth.o(.text)
    ETH_MMCCounterRolloverCmd                0x08036ec7   Thumb Code    34  stm32f4x7_eth.o(.text)
    ETH_MMCCountersReset                     0x08036ee9   Thumb Code    16  stm32f4x7_eth.o(.text)
    ETH_MMCITConfig                          0x08036ef9   Thumb Code    78  stm32f4x7_eth.o(.text)
    ETH_GetMMCITStatus                       0x08036f47   Thumb Code    66  stm32f4x7_eth.o(.text)
    ETH_GetMMCRegister                       0x08036f89   Thumb Code     8  stm32f4x7_eth.o(.text)
    FSMC_NORSRAMDeInit                       0x08036f9d   Thumb Code    54  stm32f4xx_fsmc.o(.text)
    FSMC_NORSRAMInit                         0x08036fd3   Thumb Code   230  stm32f4xx_fsmc.o(.text)
    FSMC_NORSRAMStructInit                   0x080370b9   Thumb Code    48  stm32f4xx_fsmc.o(.text)
    FSMC_NORSRAMCmd                          0x080370e9   Thumb Code    46  stm32f4xx_fsmc.o(.text)
    FSMC_NANDDeInit                          0x08037117   Thumb Code    62  stm32f4xx_fsmc.o(.text)
    FSMC_NANDInit                            0x08037155   Thumb Code   132  stm32f4xx_fsmc.o(.text)
    FSMC_NANDStructInit                      0x080371d9   Thumb Code    54  stm32f4xx_fsmc.o(.text)
    FSMC_NANDCmd                             0x0803720f   Thumb Code    86  stm32f4xx_fsmc.o(.text)
    FSMC_NANDECCCmd                          0x08037265   Thumb Code    86  stm32f4xx_fsmc.o(.text)
    FSMC_GetECC                              0x080372bb   Thumb Code    24  stm32f4xx_fsmc.o(.text)
    FSMC_PCCARDDeInit                        0x080372d3   Thumb Code    36  stm32f4xx_fsmc.o(.text)
    FSMC_PCCARDInit                          0x080372f7   Thumb Code   130  stm32f4xx_fsmc.o(.text)
    FSMC_PCCARDStructInit                    0x08037379   Thumb Code    60  stm32f4xx_fsmc.o(.text)
    FSMC_PCCARDCmd                           0x080373b5   Thumb Code    44  stm32f4xx_fsmc.o(.text)
    FSMC_ITConfig                            0x080373e1   Thumb Code   128  stm32f4xx_fsmc.o(.text)
    FSMC_GetFlagStatus                       0x08037461   Thumb Code    54  stm32f4xx_fsmc.o(.text)
    FSMC_ClearFlag                           0x08037497   Thumb Code    74  stm32f4xx_fsmc.o(.text)
    FSMC_GetITStatus                         0x080374e1   Thumb Code    62  stm32f4xx_fsmc.o(.text)
    FSMC_ClearITPendingBit                   0x0803751f   Thumb Code    66  stm32f4xx_fsmc.o(.text)
    BSP_CPU_ClkFreq                          0x08037565   Thumb Code    14  bsp.o(.text)
    CPU_TS_TmrInit                           0x08037573   Thumb Code    44  bsp.o(.text)
    CPU_TS_TmrRd                             0x0803759f   Thumb Code     6  bsp.o(.text)
    CPU_TS32_to_uSec                         0x080375a5   Thumb Code    54  bsp.o(.text)
    CPU_NameClr                              0x080375e9   Thumb Code    42  cpu_core.o(.text)
    CPU_Init                                 0x08037629   Thumb Code    12  cpu_core.o(.text)
    CPU_SW_Exception                         0x08037635   Thumb Code     4  cpu_core.o(.text)
    CPU_NameGet                              0x08037639   Thumb Code    70  cpu_core.o(.text)
    CPU_NameSet                              0x0803767f   Thumb Code    96  cpu_core.o(.text)
    CPU_TS_Get32                             0x080376df   Thumb Code    12  cpu_core.o(.text)
    CPU_TS_Update                            0x080376eb   Thumb Code     2  cpu_core.o(.text)
    CPU_TS_TmrFreqGet                        0x080376ed   Thumb Code    30  cpu_core.o(.text)
    CPU_TS_TmrFreqSet                        0x0803770b   Thumb Code     6  cpu_core.o(.text)
    CPU_CntLeadZeros08                       0x08037711   Thumb Code    18  cpu_core.o(.text)
    CPU_CntLeadZeros16                       0x08037723   Thumb Code    18  cpu_core.o(.text)
    CPU_CntLeadZeros32                       0x08037735   Thumb Code    18  cpu_core.o(.text)
    CPU_CntLeadZeros64                       0x08037747   Thumb Code   188  cpu_core.o(.text)
    CPU_CntTrailZeros08                      0x08037803   Thumb Code    22  cpu_core.o(.text)
    CPU_CntTrailZeros16                      0x08037819   Thumb Code    22  cpu_core.o(.text)
    CPU_CntTrailZeros32                      0x0803782f   Thumb Code    22  cpu_core.o(.text)
    CPU_CntTrailZeros64                      0x08037845   Thumb Code    62  cpu_core.o(.text)
    ASCII_IsAlpha                            0x08037891   Thumb Code    48  lib_ascii.o(.text)
    ASCII_IsAlphaNum                         0x080378c1   Thumb Code    76  lib_ascii.o(.text)
    ASCII_IsLower                            0x0803790d   Thumb Code    20  lib_ascii.o(.text)
    ASCII_IsUpper                            0x08037921   Thumb Code    20  lib_ascii.o(.text)
    ASCII_IsDig                              0x08037935   Thumb Code    20  lib_ascii.o(.text)
    ASCII_IsDigOct                           0x08037949   Thumb Code    20  lib_ascii.o(.text)
    ASCII_IsDigHex                           0x0803795d   Thumb Code    36  lib_ascii.o(.text)
    ASCII_IsBlank                            0x08037981   Thumb Code    20  lib_ascii.o(.text)
    ASCII_IsSpace                            0x08037995   Thumb Code    36  lib_ascii.o(.text)
    ASCII_IsPrint                            0x080379b9   Thumb Code    20  lib_ascii.o(.text)
    ASCII_IsGraph                            0x080379cd   Thumb Code    20  lib_ascii.o(.text)
    ASCII_IsPunct                            0x080379e1   Thumb Code   134  lib_ascii.o(.text)
    ASCII_IsCtrl                             0x08037a67   Thumb Code    26  lib_ascii.o(.text)
    ASCII_ToLower                            0x08037a81   Thumb Code    32  lib_ascii.o(.text)
    ASCII_ToUpper                            0x08037aa1   Thumb Code    32  lib_ascii.o(.text)
    ASCII_Cmp                                0x08037ac1   Thumb Code    38  lib_ascii.o(.text)
    Mem_Init                                 0x08037ae9   Thumb Code    54  lib_mem.o(.text)
    Mem_Set                                  0x08037b1f   Thumb Code    84  lib_mem.o(.text)
    Mem_Clr                                  0x08037b73   Thumb Code    18  lib_mem.o(.text)
    Mem_Move                                 0x08037b85   Thumb Code   186  lib_mem.o(.text)
    Mem_Cmp                                  0x08037c3f   Thumb Code   192  lib_mem.o(.text)
    Mem_HeapAlloc                            0x08037d77   Thumb Code   168  lib_mem.o(.text)
    Mem_SegGetSizeRem                        0x08037e1f   Thumb Code   108  lib_mem.o(.text)
    Mem_HeapGetSizeRem                       0x08037e8b   Thumb Code    22  lib_mem.o(.text)
    Mem_PoolClr                              0x08037ea1   Thumb Code    80  lib_mem.o(.text)
    Mem_PoolCreate                           0x08037ef1   Thumb Code   838  lib_mem.o(.text)
    Mem_PoolBlkGetNbrAvail                   0x08038237   Thumb Code    52  lib_mem.o(.text)
    Mem_PoolBlkGet                           0x0803826b   Thumb Code   126  lib_mem.o(.text)
    Mem_PoolBlkGetUsedAtIx                   0x080382e9   Thumb Code   140  lib_mem.o(.text)
    Mem_PoolBlkFree                          0x08038375   Thumb Code   152  lib_mem.o(.text)
    Mem_PoolBlkIxGet                         0x0803840d   Thumb Code   162  lib_mem.o(.text)
    Str_Len_N                                0x080384b1   Thumb Code    28  lib_str.o(.text)
    Str_Len                                  0x080384cd   Thumb Code    20  lib_str.o(.text)
    Str_Copy_N                               0x080384e1   Thumb Code    70  lib_str.o(.text)
    Str_Copy                                 0x08038527   Thumb Code    24  lib_str.o(.text)
    Str_Cat_N                                0x0803853f   Thumb Code    90  lib_str.o(.text)
    Str_Cat                                  0x08038599   Thumb Code    24  lib_str.o(.text)
    Str_Cmp_N                                0x080385b1   Thumb Code   156  lib_str.o(.text)
    Str_Cmp                                  0x0803864d   Thumb Code    24  lib_str.o(.text)
    Str_CmpIgnoreCase_N                      0x08038665   Thumb Code   264  lib_str.o(.text)
    Str_CmpIgnoreCase                        0x0803876d   Thumb Code    24  lib_str.o(.text)
    Str_Char_N                               0x08038785   Thumb Code    74  lib_str.o(.text)
    Str_Char                                 0x080387cf   Thumb Code    24  lib_str.o(.text)
    Str_Char_Last_N                          0x080387e7   Thumb Code    76  lib_str.o(.text)
    Str_Char_Last                            0x08038833   Thumb Code    24  lib_str.o(.text)
    Str_Char_Replace_N                       0x0803884b   Thumb Code    52  lib_str.o(.text)
    Str_Char_Replace                         0x0803887f   Thumb Code    28  lib_str.o(.text)
    Str_Str_N                                0x0803889b   Thumb Code   182  lib_str.o(.text)
    Str_Str                                  0x08038951   Thumb Code    24  lib_str.o(.text)
    Str_FmtNbr_Int32U                        0x08038b43   Thumb Code    46  lib_str.o(.text)
    Str_FmtNbr_Int32S                        0x08038b71   Thumb Code    62  lib_str.o(.text)
    Str_ParseNbr_Int32U                      0x08038d6d   Thumb Code    30  lib_str.o(.text)
    Str_ParseNbr_Int32S                      0x08038d8b   Thumb Code    74  lib_str.o(.text)
    OSCfg_Init                               0x08038dd9   Thumb Code     2  os_cfg_app.o(.text)
    OS_IdleTask                              0x08038ddd   Thumb Code    50  os_core.o(.text)
    OS_IdleTaskInit                          0x08038e0f   Thumb Code    68  os_core.o(.text)
    OS_RdyListInit                           0x08038e53   Thumb Code    32  os_core.o(.text)
    OSInit                                   0x08038e73   Thumb Code   220  os_core.o(.text)
    OSIntEnter                               0x08038f4f   Thumb Code    34  os_core.o(.text)
    OSIntExit                                0x08038f71   Thumb Code   188  os_core.o(.text)
    OSSched                                  0x0803902d   Thumb Code   130  os_core.o(.text)
    OSSchedLock                              0x080390af   Thumb Code   100  os_core.o(.text)
    OSSchedUnlock                            0x08039113   Thumb Code   132  os_core.o(.text)
    OSSchedRoundRobinCfg                     0x08039197   Thumb Code   194  os_core.o(.text)
    OS_RdyListMoveHeadToTail                 0x08039259   Thumb Code    68  os_core.o(.text)
    OSSchedRoundRobinYield                   0x0803929d   Thumb Code   164  os_core.o(.text)
    OSStart                                  0x08039341   Thumb Code    78  os_core.o(.text)
    OSVersion                                0x0803938f   Thumb Code    12  os_core.o(.text)
    OS_PendListInsertPrio                    0x0803939b   Thumb Code   102  os_core.o(.text)
    OS_PendDataInit                          0x08039401   Thumb Code    38  os_core.o(.text)
    OS_RdyListRemove                         0x08039427   Thumb Code    86  os_core.o(.text)
    OS_TaskBlock                             0x0803947d   Thumb Code    56  os_core.o(.text)
    OS_Pend                                  0x080394b5   Thumb Code    88  os_core.o(.text)
    OS_PendListRemove1                       0x0803950d   Thumb Code    66  os_core.o(.text)
    OS_PendListRemove                        0x0803954f   Thumb Code    48  os_core.o(.text)
    OS_PendAbort1                            0x0803957f   Thumb Code    36  os_core.o(.text)
    OS_RdyListInsertHead                     0x080395a3   Thumb Code    58  os_core.o(.text)
    OS_RdyListInsertTail                     0x080395dd   Thumb Code   100  os_core.o(.text)
    OS_RdyListInsert                         0x08039641   Thumb Code    40  os_core.o(.text)
    OS_TaskRdy                               0x08039669   Thumb Code    28  os_core.o(.text)
    OS_PendAbort                             0x08039685   Thumb Code   166  os_core.o(.text)
    OS_PendListChangePrio                    0x0803972b   Thumb Code    70  os_core.o(.text)
    OS_PendListInit                          0x08039771   Thumb Code    10  os_core.o(.text)
    OS_PendListInsertHead                    0x0803977b   Thumb Code    32  os_core.o(.text)
    OS_PendObjDel1                           0x0803979b   Thumb Code    36  os_core.o(.text)
    OS_PendObjDel                            0x080397bf   Thumb Code   162  os_core.o(.text)
    OS_Post1                                 0x08039861   Thumb Code    42  os_core.o(.text)
    OS_Post                                  0x0803988b   Thumb Code   176  os_core.o(.text)
    OS_SchedRoundRobin                       0x0803993b   Thumb Code   190  os_core.o(.text)
    OSMemCreate                              0x08039a0d   Thumb Code   226  os_mem.o(.text)
    OSMemGet                                 0x08039aef   Thumb Code   100  os_mem.o(.text)
    OSMemPut                                 0x08039b53   Thumb Code   112  os_mem.o(.text)
    OS_MemInit                               0x08039bc3   Thumb Code    10  os_mem.o(.text)
    OS_MsgPoolInit                           0x08039bd9   Thumb Code   110  os_msg.o(.text)
    OS_MsgQFreeAll                           0x08039c47   Thumb Code    62  os_msg.o(.text)
    OS_MsgQInit                              0x08039c85   Thumb Code    14  os_msg.o(.text)
    OS_MsgQGet                               0x08039c93   Thumb Code    98  os_msg.o(.text)
    OS_MsgQPut                               0x08039cf5   Thumb Code   254  os_msg.o(.text)
    OSMutexCreate                            0x08039e01   Thumb Code   112  os_mutex.o(.text)
    OS_MutexClr                              0x08039e71   Thumb Code    34  os_mutex.o(.text)
    OSMutexDel                               0x08039e93   Thumb Code   422  os_mutex.o(.text)
    OSMutexPend                              0x0803a039   Thumb Code   598  os_mutex.o(.text)
    OSMutexPendAbort                         0x0803a28f   Thumb Code   236  os_mutex.o(.text)
    OSMutexPost                              0x0803a37b   Thumb Code   338  os_mutex.o(.text)
    OS_MutexInit                             0x0803a4cd   Thumb Code    10  os_mutex.o(.text)
    OS_PrioInit                              0x0803a4ed   Thumb Code    20  os_prio.o(.text)
    OS_PrioGetHighest                        0x0803a501   Thumb Code    36  os_prio.o(.text)
    OS_PrioInsert                            0x0803a525   Thumb Code    32  os_prio.o(.text)
    OS_PrioRemove                            0x0803a545   Thumb Code    32  os_prio.o(.text)
    OSQCreate                                0x0803a569   Thumb Code   124  os_q.o(.text)
    OS_QClr                                  0x0803a5e5   Thumb Code    40  os_q.o(.text)
    OSQDel                                   0x0803a60d   Thumb Code   294  os_q.o(.text)
    OSQFlush                                 0x0803a733   Thumb Code   106  os_q.o(.text)
    OSQPend                                  0x0803a79d   Thumb Code   476  os_q.o(.text)
    OSQPendAbort                             0x0803a979   Thumb Code   236  os_q.o(.text)
    OS_QPost                                 0x0803aa65   Thumb Code   190  os_q.o(.text)
    OSQPost                                  0x0803ab23   Thumb Code   144  os_q.o(.text)
    OS_QInit                                 0x0803abb3   Thumb Code    10  os_q.o(.text)
    OSSemCreate                              0x0803abc9   Thumb Code   110  os_sem.o(.text)
    OS_SemClr                                0x0803ac37   Thumb Code    28  os_sem.o(.text)
    OSSemDel                                 0x0803ac53   Thumb Code   294  os_sem.o(.text)
    OSSemPend                                0x0803ad79   Thumb Code   406  os_sem.o(.text)
    OSSemPendAbort                           0x0803af0f   Thumb Code   270  os_sem.o(.text)
    OS_SemPost                               0x0803b01d   Thumb Code   294  os_sem.o(.text)
    OSSemPost                                0x0803b143   Thumb Code   108  os_sem.o(.text)
    OSSemSet                                 0x0803b1af   Thumb Code   120  os_sem.o(.text)
    OS_SemInit                               0x0803b227   Thumb Code    10  os_sem.o(.text)
    OSTaskChangePrio                         0x0803b23d   Thumb Code   274  os_task.o(.text)
    OS_TaskInitTCB                           0x0803b34f   Thumb Code   156  os_task.o(.text)
    OSTaskCreate                             0x0803b3eb   Thumb Code   406  os_task.o(.text)
    OSTaskDel                                0x0803b581   Thumb Code   308  os_task.o(.text)
    OSTaskQFlush                             0x0803b6b5   Thumb Code   110  os_task.o(.text)
    OSTaskQPend                              0x0803b723   Thumb Code   458  os_task.o(.text)
    OSTaskQPendAbort                         0x0803b8ed   Thumb Code   186  os_task.o(.text)
    OS_TaskQPost                             0x0803b9a7   Thumb Code   238  os_task.o(.text)
    OSTaskQPost                              0x0803ba95   Thumb Code    82  os_task.o(.text)
    OSTaskRegGet                             0x0803bae7   Thumb Code    78  os_task.o(.text)
    OSTaskRegGetID                           0x0803bb35   Thumb Code    84  os_task.o(.text)
    OSTaskRegSet                             0x0803bb89   Thumb Code    78  os_task.o(.text)
    OS_TaskResume                            0x0803bbd7   Thumb Code   256  os_task.o(.text)
    OSTaskResume                             0x0803bcd7   Thumb Code    96  os_task.o(.text)
    OSTaskSemPend                            0x0803bd37   Thumb Code   482  os_task.o(.text)
    OSTaskSemPendAbort                       0x0803bf19   Thumb Code   214  os_task.o(.text)
    OS_TaskSemPost                           0x0803bfef   Thumb Code   448  os_task.o(.text)
    OSTaskSemPost                            0x0803c1af   Thumb Code    62  os_task.o(.text)
    OSTaskSemSet                             0x0803c1ed   Thumb Code    80  os_task.o(.text)
    OSTaskStkChk                             0x0803c23d   Thumb Code   212  os_task.o(.text)
    OS_TaskSuspend                           0x0803c311   Thumb Code   272  os_task.o(.text)
    OSTaskSuspend                            0x0803c421   Thumb Code    48  os_task.o(.text)
    OSTaskTimeQuantaSet                      0x0803c451   Thumb Code    96  os_task.o(.text)
    OS_TaskInit                              0x0803c4b1   Thumb Code    14  os_task.o(.text)
    OS_TaskReturn                            0x0803c4bf   Thumb Code    20  os_task.o(.text)
    OS_TickListRemove                        0x0803c4f1   Thumb Code    56  os_tick.o(.text)
    OS_TickListUpdate                        0x0803c529   Thumb Code   376  os_tick.o(.text)
    OS_TickTask                              0x0803c6a1   Thumb Code    38  os_tick.o(.text)
    OS_TickListInit                          0x0803c6c7   Thumb Code    32  os_tick.o(.text)
    OS_TickTaskInit                          0x0803c6e7   Thumb Code   130  os_tick.o(.text)
    OS_TickListInsert                        0x0803c769   Thumb Code   430  os_tick.o(.text)
    OS_TickListResetPeak                     0x0803c917   Thumb Code    94  os_tick.o(.text)
    OSTimeDly                                0x0803c975   Thumb Code   182  os_time.o(.text)
    OSTimeDlyHMSM                            0x0803ca2b   Thumb Code   394  os_time.o(.text)
    OSTimeDlyResume                          0x0803cbb5   Thumb Code   334  os_time.o(.text)
    OSTimeGet                                0x0803cd03   Thumb Code    46  os_time.o(.text)
    OSTimeSet                                0x0803cd31   Thumb Code    68  os_time.o(.text)
    OSTimeTick                               0x0803cd75   Thumb Code    68  os_time.o(.text)
    OSTmrCreate                              0x0803cdd1   Thumb Code   186  os_tmr.o(.text)
    OS_TmrClr                                0x0803ce8b   Thumb Code    36  os_tmr.o(.text)
    OS_TmrUnlink                             0x0803ceaf   Thumb Code    72  os_tmr.o(.text)
    OSTmrDel                                 0x0803cef7   Thumb Code   176  os_tmr.o(.text)
    OSTmrRemainGet                           0x0803cfa7   Thumb Code   188  os_tmr.o(.text)
    OS_TmrLink                               0x0803d063   Thumb Code   196  os_tmr.o(.text)
    OSTmrStart                               0x0803d127   Thumb Code   206  os_tmr.o(.text)
    OSTmrStateGet                            0x0803d1f5   Thumb Code   134  os_tmr.o(.text)
    OSTmrStop                                0x0803d27b   Thumb Code   246  os_tmr.o(.text)
    OS_TmrTask                               0x0803d371   Thumb Code   176  os_tmr.o(.text)
    OS_TmrInit                               0x0803d421   Thumb Code   202  os_tmr.o(.text)
    OS_TmrResetPeak                          0x0803d4eb   Thumb Code    28  os_tmr.o(.text)
    OSIdleTaskHook                           0x0803d561   Thumb Code     2  os_cpu_c.o(.text)
    OSInitHook                               0x0803d563   Thumb Code    28  os_cpu_c.o(.text)
    OSStatTaskHook                           0x0803d57f   Thumb Code     2  os_cpu_c.o(.text)
    OSTaskCreateHook                         0x0803d581   Thumb Code     2  os_cpu_c.o(.text)
    OSTaskDelHook                            0x0803d583   Thumb Code     2  os_cpu_c.o(.text)
    OSTaskReturnHook                         0x0803d585   Thumb Code     2  os_cpu_c.o(.text)
    OSTaskStkInit                            0x0803d587   Thumb Code   192  os_cpu_c.o(.text)
    OSTaskSwHook                             0x0803d647   Thumb Code    74  os_cpu_c.o(.text)
    OSTimeTickHook                           0x0803d691   Thumb Code     2  os_cpu_c.o(.text)
    OS_CPU_SysTickHandler                    0x0803d693   Thumb Code    52  os_cpu_c.o(.text)
    OS_CPU_SysTickInit                       0x0803d6c7   Thumb Code    44  os_cpu_c.o(.text)
    CPU_IntDis                               0x0803d715   Thumb Code     0  cpu_a.o(.text)
    CPU_IntEn                                0x0803d719   Thumb Code     0  cpu_a.o(.text)
    CPU_SR_Save                              0x0803d71d   Thumb Code     0  cpu_a.o(.text)
    CPU_SR_Restore                           0x0803d725   Thumb Code     0  cpu_a.o(.text)
    CPU_WaitForInt                           0x0803d72b   Thumb Code     0  cpu_a.o(.text)
    CPU_WaitForExcept                        0x0803d72f   Thumb Code     0  cpu_a.o(.text)
    CPU_CntLeadZeros                         0x0803d733   Thumb Code     0  cpu_a.o(.text)
    CPU_CntTrailZeros                        0x0803d739   Thumb Code     0  cpu_a.o(.text)
    CPU_RevBits                              0x0803d743   Thumb Code     0  cpu_a.o(.text)
    Mem_Copy                                 0x0803d749   Thumb Code     0  lib_mem_a.o(.text)
    GetCdvTimeTick                           0x0803d969   Thumb Code     6  delay.o(.text)
    SetCdvTimeTick                           0x0803d96f   Thumb Code     6  delay.o(.text)
    CalcCount                                0x0803d975   Thumb Code    20  delay.o(.text)
    CalcTimeMS                               0x0803d989   Thumb Code    36  delay.o(.text)
    DelayMS                                  0x0803d9ad   Thumb Code    30  delay.o(.text)
    DelayTick                                0x0803d9cb   Thumb Code    30  delay.o(.text)
    delay_ms                                 0x0803d9e9   Thumb Code    68  delay.o(.text)
    TaskSched1                               0x0803da2d   Thumb Code    10  delay.o(.text)
    TaskSched                                0x0803da37   Thumb Code    10  delay.o(.text)
    StartCdvTime                             0x0803da41   Thumb Code    24  delay.o(.text)
    EndCdvTime                               0x0803da59   Thumb Code    40  delay.o(.text)
    SysTick_Handler                          0x0803da81   Thumb Code    26  delay.o(.text)
    delay_init                               0x0803da9b   Thumb Code    94  delay.o(.text)
    delay_us                                 0x0803daf9   Thumb Code    90  delay.o(.text)
    Delay                                    0x0803db79   Thumb Code    16  flash.o(.text)
    SPI_Flash_ReadSR                         0x0803db89   Thumb Code    70  flash.o(.text)
    SPI_FLASH_Write_SR                       0x0803dbcf   Thumb Code    66  flash.o(.text)
    SPI_FLASH_Write_Enable                   0x0803dc11   Thumb Code    56  flash.o(.text)
    SPI_FLASH_Write_Disable                  0x0803dc49   Thumb Code    56  flash.o(.text)
    SPI_Flash_ReadID                         0x0803dc81   Thumb Code   106  flash.o(.text)
    SPI_Flash_Read                           0x0803dceb   Thumb Code   158  flash.o(.text)
    Org_Flash_Read                           0x0803dd89   Thumb Code   124  flash.o(.text)
    SPI_Flash_Wait_Busy                      0x0803de05   Thumb Code    18  flash.o(.text)
    SPI_Flash_Write_Page                     0x0803de17   Thumb Code   122  flash.o(.text)
    SPI_Flash_Write_NoCheck                  0x0803de91   Thumb Code    70  flash.o(.text)
    SPI_Flash_Erase_Sector                   0x0803ded7   Thumb Code   100  flash.o(.text)
    SPI_Flash_Write                          0x0803df3b   Thumb Code   256  flash.o(.text)
    Org_Flash_Write                          0x0803e03b   Thumb Code   206  flash.o(.text)
    SPI_Flash_Erase_Chip                     0x0803e109   Thumb Code    68  flash.o(.text)
    SPI_Flash_PowerDown                      0x0803e14d   Thumb Code    62  flash.o(.text)
    SPI_Flash_WAKEUP                         0x0803e18b   Thumb Code    62  flash.o(.text)
    Flash_Check                              0x0803e1c9   Thumb Code    88  flash.o(.text)
    mymemcpy                                 0x0803e245   Thumb Code    26  malloc.o(.text)
    mymemset                                 0x0803e25f   Thumb Code    20  malloc.o(.text)
    mymem_init                               0x0803e273   Thumb Code    54  malloc.o(.text)
    mem_perused                              0x0803e2a9   Thumb Code    54  malloc.o(.text)
    mymem_malloc                             0x0803e2df   Thumb Code   162  malloc.o(.text)
    mymem_free                               0x0803e381   Thumb Code    94  malloc.o(.text)
    myfree                                   0x0803e3df   Thumb Code    32  malloc.o(.text)
    mymalloc                                 0x0803e3ff   Thumb Code    36  malloc.o(.text)
    myrealloc                                0x0803e423   Thumb Code    68  malloc.o(.text)
    UserMemPtr                               0x0803e467   Thumb Code    18  malloc.o(.text)
    ethernetif_input                         0x0803e61f   Thumb Code    42  ethernetif.o(.text)
    ethernetif_init                          0x0803e703   Thumb Code    50  ethernetif.o(.text)
    sys_mbox_new                             0x0803e761   Thumb Code    40  sys_arch.o(.text)
    sys_mbox_free                            0x0803e789   Thumb Code    28  sys_arch.o(.text)
    sys_mbox_post                            0x0803e7a5   Thumb Code    80  sys_arch.o(.text)
    sys_mbox_trypost                         0x0803e7f5   Thumb Code    42  sys_arch.o(.text)
    sys_arch_mbox_fetch                      0x0803e81f   Thumb Code   150  sys_arch.o(.text)
    sys_arch_mbox_tryfetch                   0x0803e8b5   Thumb Code    18  sys_arch.o(.text)
    sys_mbox_valid                           0x0803e8c7   Thumb Code    30  sys_arch.o(.text)
    sys_mbox_set_invalid                     0x0803e8e5   Thumb Code    20  sys_arch.o(.text)
    sys_sem_new                              0x0803e8f9   Thumb Code    38  sys_arch.o(.text)
    sys_arch_sem_wait                        0x0803e91f   Thumb Code   118  sys_arch.o(.text)
    sys_sem_signal                           0x0803e995   Thumb Code    20  sys_arch.o(.text)
    sys_sem_free                             0x0803e9a9   Thumb Code    22  sys_arch.o(.text)
    sys_sem_valid                            0x0803e9bf   Thumb Code    30  sys_arch.o(.text)
    sys_sem_set_invalid                      0x0803e9dd   Thumb Code    20  sys_arch.o(.text)
    sys_init                                 0x0803e9f1   Thumb Code     2  sys_arch.o(.text)
    sys_thread_new                           0x0803e9f3   Thumb Code   112  sys_arch.o(.text)
    sys_msleep                               0x0803ea63   Thumb Code    12  sys_arch.o(.text)
    sys_now                                  0x0803ea6f   Thumb Code    30  sys_arch.o(.text)
    etharp_tmr                               0x0803eb1b   Thumb Code   136  etharp.o(.text)
    etharp_cleanup_netif                     0x0803eded   Thumb Code    52  etharp.o(.text)
    etharp_find_addr                         0x0803ee21   Thumb Code    82  etharp.o(.text)
    etharp_request                           0x0803f053   Thumb Code    36  etharp.o(.text)
    etharp_query                             0x0803f0df   Thumb Code   338  etharp.o(.text)
    etharp_output                            0x0803f231   Thumb Code   314  etharp.o(.text)
    ethernet_input                           0x0803f36b   Thumb Code   178  etharp.o(.text)
    netconn_new_with_proto_and_callback      0x0803f42d   Thumb Code   114  api_lib.o(.text)
    netconn_delete                           0x0803f49f   Thumb Code    36  api_lib.o(.text)
    netconn_getaddr                          0x0803f4c3   Thumb Code   108  api_lib.o(.text)
    netconn_bind                             0x0803f52f   Thumb Code    80  api_lib.o(.text)
    netconn_connect                          0x0803f57f   Thumb Code    80  api_lib.o(.text)
    netconn_disconnect                       0x0803f5cf   Thumb Code    66  api_lib.o(.text)
    netconn_listen_with_backlog              0x0803f611   Thumb Code    68  api_lib.o(.text)
    netconn_accept                           0x0803f655   Thumb Code   186  api_lib.o(.text)
    netconn_recv_tcp_pbuf                    0x0803f849   Thumb Code    34  api_lib.o(.text)
    netconn_recv                             0x0803f86b   Thumb Code   172  api_lib.o(.text)
    netconn_recved                           0x0803f917   Thumb Code    46  api_lib.o(.text)
    netconn_send                             0x0803f945   Thumb Code    70  api_lib.o(.text)
    netconn_sendto                           0x0803f98b   Thumb Code    44  api_lib.o(.text)
    netconn_write_partly                     0x0803f9b7   Thumb Code   186  api_lib.o(.text)
    netconn_close                            0x0803fab9   Thumb Code    14  api_lib.o(.text)
    netconn_shutdown                         0x0803fac7   Thumb Code    36  api_lib.o(.text)
    netconn_free                             0x08040155   Thumb Code    58  api_msg.o(.text)
    netconn_alloc                            0x0804018f   Thumb Code   152  api_msg.o(.text)
    do_newconn                               0x08040369   Thumb Code    32  api_msg.o(.text)
    do_delconn                               0x08040433   Thumb Code   230  api_msg.o(.text)
    do_bind                                  0x08040519   Thumb Code   116  api_msg.o(.text)
    do_connect                               0x08040627   Thumb Code   210  api_msg.o(.text)
    do_disconnect                            0x080406f9   Thumb Code    46  api_msg.o(.text)
    do_listen                                0x08040727   Thumb Code   198  api_msg.o(.text)
    do_send                                  0x080407ed   Thumb Code   166  api_msg.o(.text)
    do_recv                                  0x08040893   Thumb Code    72  api_msg.o(.text)
    do_write                                 0x080408db   Thumb Code   108  api_msg.o(.text)
    do_getaddr                               0x08040947   Thumb Code   178  api_msg.o(.text)
    do_close                                 0x080409f9   Thumb Code   128  api_msg.o(.text)
    netbuf_new                               0x08040a79   Thumb Code    30  netbuf.o(.text)
    netbuf_delete                            0x08040a97   Thumb Code    32  netbuf.o(.text)
    netbuf_alloc                             0x08040ab7   Thumb Code    60  netbuf.o(.text)
    netbuf_free                              0x08040af3   Thumb Code    32  netbuf.o(.text)
    netbuf_ref                               0x08040b13   Thumb Code    74  netbuf.o(.text)
    netbuf_chain                             0x08040b5d   Thumb Code    46  netbuf.o(.text)
    netbuf_data                              0x08040b8b   Thumb Code    64  netbuf.o(.text)
    netbuf_next                              0x08040bcb   Thumb Code    46  netbuf.o(.text)
    netbuf_first                             0x08040bf9   Thumb Code    16  netbuf.o(.text)
    tcpip_input                              0x08040cc3   Thumb Code    72  tcpip.o(.text)
    tcpip_callback_with_block                0x08040d0b   Thumb Code    90  tcpip.o(.text)
    tcpip_timeout                            0x08040d65   Thumb Code    64  tcpip.o(.text)
    tcpip_untimeout                          0x08040da5   Thumb Code    56  tcpip.o(.text)
    tcpip_apimsg                             0x08040ddd   Thumb Code    56  tcpip.o(.text)
    tcpip_callbackmsg_new                    0x08040e15   Thumb Code    32  tcpip.o(.text)
    tcpip_callbackmsg_delete                 0x08040e35   Thumb Code    14  tcpip.o(.text)
    tcpip_trycallback                        0x08040e43   Thumb Code    28  tcpip.o(.text)
    tcpip_init                               0x08040e5f   Thumb Code    52  tcpip.o(.text)
    pbuf_free_callback                       0x08040ea1   Thumb Code    16  tcpip.o(.text)
    mem_free_callback                        0x08040eb1   Thumb Code    16  tcpip.o(.text)
    lwip_htons                               0x08040ee9   Thumb Code    12  def.o(.text)
    lwip_ntohs                               0x08040ef5   Thumb Code    12  def.o(.text)
    lwip_htonl                               0x08040f01   Thumb Code    26  def.o(.text)
    lwip_ntohl                               0x08040f1b   Thumb Code    12  def.o(.text)
    lwip_init                                0x08040f27   Thumb Code    32  init.o(.text)
    mem_init                                 0x08040fc5   Thumb Code    90  mem.o(.text)
    mem_free                                 0x0804101f   Thumb Code    94  mem.o(.text)
    mem_trim                                 0x0804107d   Thumb Code   278  mem.o(.text)
    mem_malloc                               0x08041193   Thumb Code   254  mem.o(.text)
    mem_calloc                               0x08041291   Thumb Code    34  mem.o(.text)
    memp_get_memorysize                      0x080412c9   Thumb Code     8  memp.o(.text)
    memp_init                                0x080412d1   Thumb Code    82  memp.o(.text)
    memp_malloc                              0x08041323   Thumb Code    54  memp.o(.text)
    memp_free                                0x08041359   Thumb Code    50  memp.o(.text)
    netif_init                               0x0804139d   Thumb Code     2  netif.o(.text)
    netif_set_gw                             0x0804139f   Thumb Code    12  netif.o(.text)
    netif_set_netmask                        0x080413ab   Thumb Code    12  netif.o(.text)
    netif_set_ipaddr                         0x080413b7   Thumb Code   110  netif.o(.text)
    netif_set_addr                           0x08041425   Thumb Code    40  netif.o(.text)
    netif_add                                0x0804144d   Thumb Code   102  netif.o(.text)
    netif_set_default                        0x080414b3   Thumb Code     6  netif.o(.text)
    netif_set_down                           0x080414b9   Thumb Code    42  netif.o(.text)
    netif_remove                             0x080414e3   Thumb Code    90  netif.o(.text)
    netif_find                               0x0804153d   Thumb Code    64  netif.o(.text)
    netif_set_up                             0x0804157d   Thumb Code    54  netif.o(.text)
    netif_set_link_up                        0x080415b3   Thumb Code    68  netif.o(.text)
    netif_set_link_down                      0x080415f7   Thumb Code    42  netif.o(.text)
    netif_set_link_callback                  0x08041621   Thumb Code     6  netif.o(.text)
    pbuf_free                                0x0804163d   Thumb Code   146  pbuf.o(.text)
    pbuf_alloc                               0x080416cf   Thumb Code   402  pbuf.o(.text)
    pbuf_alloced_custom                      0x08041861   Thumb Code   108  pbuf.o(.text)
    pbuf_realloc                             0x080418cd   Thumb Code   120  pbuf.o(.text)
    pbuf_header                              0x08041945   Thumb Code   126  pbuf.o(.text)
    pbuf_clen                                0x080419c3   Thumb Code    18  pbuf.o(.text)
    pbuf_ref                                 0x080419d5   Thumb Code    26  pbuf.o(.text)
    pbuf_cat                                 0x080419ef   Thumb Code    56  pbuf.o(.text)
    pbuf_chain                               0x08041a27   Thumb Code    22  pbuf.o(.text)
    pbuf_dechain                             0x08041a3d   Thumb Code    56  pbuf.o(.text)
    pbuf_copy                                0x08041a75   Thumb Code   192  pbuf.o(.text)
    pbuf_copy_partial                        0x08041b35   Thumb Code   146  pbuf.o(.text)
    pbuf_take                                0x08041bc7   Thumb Code   116  pbuf.o(.text)
    pbuf_coalesce                            0x08041c3b   Thumb Code    60  pbuf.o(.text)
    pbuf_get_at                              0x08041c77   Thumb Code    46  pbuf.o(.text)
    pbuf_memcmp                              0x08041ca5   Thumb Code    96  pbuf.o(.text)
    pbuf_memfind                             0x08041d05   Thumb Code    76  pbuf.o(.text)
    pbuf_strstr                              0x08041d51   Thumb Code    60  pbuf.o(.text)
    raw_input                                0x08041d8d   Thumb Code   102  raw.o(.text)
    raw_bind                                 0x08041df3   Thumb Code    16  raw.o(.text)
    raw_connect                              0x08041e03   Thumb Code    16  raw.o(.text)
    raw_recv                                 0x08041e13   Thumb Code     6  raw.o(.text)
    raw_sendto                               0x08041e19   Thumb Code   158  raw.o(.text)
    raw_send                                 0x08041eb7   Thumb Code    18  raw.o(.text)
    raw_remove                               0x08041ec9   Thumb Code    60  raw.o(.text)
    raw_new                                  0x08041f05   Thumb Code    42  raw.o(.text)
    tcp_init                                 0x08041f3d   Thumb Code     2  tcp.o(.text)
    tcp_seg_free                             0x08041f3f   Thumb Code    26  tcp.o(.text)
    tcp_segs_free                            0x08041f59   Thumb Code    24  tcp.o(.text)
    tcp_pcb_purge                            0x08041f71   Thumb Code    64  tcp.o(.text)
    tcp_slowtmr                              0x08041fb1   Thumb Code   784  tcp.o(.text)
    tcp_pcb_remove                           0x080422c1   Thumb Code   140  tcp.o(.text)
    tcp_close                                0x0804251f   Thumb Code    28  tcp.o(.text)
    tcp_update_rcv_ann_wnd                   0x0804253b   Thumb Code    78  tcp.o(.text)
    tcp_recved                               0x08042589   Thumb Code    70  tcp.o(.text)
    tcp_recv_null                            0x080425cf   Thumb Code    46  tcp.o(.text)
    tcp_process_refused_data                 0x080425fd   Thumb Code   140  tcp.o(.text)
    tcp_fasttmr                              0x08042689   Thumb Code   110  tcp.o(.text)
    tcp_tmr                                  0x080426f7   Thumb Code    30  tcp.o(.text)
    tcp_shutdown                             0x08042715   Thumb Code    98  tcp.o(.text)
    tcp_abandon                              0x08042777   Thumb Code   172  tcp.o(.text)
    tcp_abort                                0x08042823   Thumb Code    14  tcp.o(.text)
    tcp_bind                                 0x08042891   Thumb Code   142  tcp.o(.text)
    tcp_listen_with_backlog                  0x08042927   Thumb Code   198  tcp.o(.text)
    tcp_eff_send_mss                         0x080429ed   Thumb Code    46  tcp.o(.text)
    tcp_next_iss                             0x08042a1b   Thumb Code    20  tcp.o(.text)
    tcp_connect                              0x08042a2f   Thumb Code   324  tcp.o(.text)
    tcp_setprio                              0x08042b73   Thumb Code     4  tcp.o(.text)
    tcp_alloc                                0x08042bf5   Thumb Code   232  tcp.o(.text)
    tcp_new                                  0x08042cdd   Thumb Code    10  tcp.o(.text)
    tcp_arg                                  0x08042ce7   Thumb Code     4  tcp.o(.text)
    tcp_recv                                 0x08042ceb   Thumb Code     8  tcp.o(.text)
    tcp_sent                                 0x08042cf3   Thumb Code     8  tcp.o(.text)
    tcp_err                                  0x08042cfb   Thumb Code    10  tcp.o(.text)
    tcp_accept                               0x08042d05   Thumb Code     4  tcp.o(.text)
    tcp_poll                                 0x08042d09   Thumb Code    14  tcp.o(.text)
    tcp_debug_state_str                      0x08042d17   Thumb Code    10  tcp.o(.text)
    tcp_input                                0x08043b35   Thumb Code  1136  tcp_in.o(.text)
    tcp_enqueue_flags                        0x080440f1   Thumb Code   272  tcp_out.o(.text)
    tcp_send_fin                             0x08044201   Thumb Code    74  tcp_out.o(.text)
    tcp_write                                0x08044333   Thumb Code   900  tcp_out.o(.text)
    tcp_send_empty_ack                       0x080446b7   Thumb Code    78  tcp_out.o(.text)
    tcp_output                               0x080447cf   Thumb Code   444  tcp_out.o(.text)
    tcp_rst                                  0x0804498b   Thumb Code   124  tcp_out.o(.text)
    tcp_rexmit_rto                           0x08044a07   Thumb Code    58  tcp_out.o(.text)
    tcp_rexmit                               0x08044a41   Thumb Code    90  tcp_out.o(.text)
    tcp_rexmit_fast                          0x08044a9b   Thumb Code   112  tcp_out.o(.text)
    tcp_keepalive                            0x08044b0b   Thumb Code    68  tcp_out.o(.text)
    tcp_zero_window_probe                    0x08044b4f   Thumb Code   172  tcp_out.o(.text)
    sys_timeout                              0x08044bfd   Thumb Code   152  timers.o(.text)
    tcp_timer_needed                         0x08044cbd   Thumb Code    38  timers.o(.text)
    sys_timeouts_init                        0x08044d0f   Thumb Code    28  timers.o(.text)
    sys_untimeout                            0x08044d2b   Thumb Code    90  timers.o(.text)
    sys_timeouts_mbox_fetch                  0x08044d85   Thumb Code   132  timers.o(.text)
    udp_init                                 0x08044e25   Thumb Code     2  udp.o(.text)
    udp_input                                0x08044e77   Thumb Code   392  udp.o(.text)
    udp_bind                                 0x08044fff   Thumb Code   122  udp.o(.text)
    udp_sendto_if                            0x08045079   Thumb Code   206  udp.o(.text)
    udp_sendto                               0x08045147   Thumb Code    46  udp.o(.text)
    udp_send                                 0x08045175   Thumb Code    20  udp.o(.text)
    udp_connect                              0x08045189   Thumb Code    94  udp.o(.text)
    udp_disconnect                           0x080451e7   Thumb Code    16  udp.o(.text)
    udp_recv                                 0x080451f7   Thumb Code     6  udp.o(.text)
    udp_remove                               0x080451fd   Thumb Code    76  udp.o(.text)
    udp_new                                  0x08045249   Thumb Code    28  udp.o(.text)
    icmp_input                               0x08045269   Thumb Code   340  icmp.o(.text)
    icmp_dest_unreach                        0x0804542d   Thumb Code    18  icmp.o(.text)
    icmp_time_exceeded                       0x0804543f   Thumb Code    18  icmp.o(.text)
    inet_chksum_pseudo                       0x080454b7   Thumb Code   162  inet_chksum.o(.text)
    inet_chksum_pseudo_partial               0x08045559   Thumb Code   184  inet_chksum.o(.text)
    inet_chksum                              0x08045611   Thumb Code    20  inet_chksum.o(.text)
    inet_chksum_pbuf                         0x08045625   Thumb Code    86  inet_chksum.o(.text)
    ip_route                                 0x0804567d   Thumb Code    76  ip.o(.text)
    ip_input                                 0x080456c9   Thumb Code   376  ip.o(.text)
    ip_output_if                             0x08045841   Thumb Code   192  ip.o(.text)
    ip_output                                0x08045901   Thumb Code    56  ip.o(.text)
    ip4_addr_isbroadcast                     0x08045955   Thumb Code    78  ip_addr.o(.text)
    ip4_addr_netmask_valid                   0x080459a3   Thumb Code    56  ip_addr.o(.text)
    ipaddr_aton                              0x080459db   Thumb Code   348  ip_addr.o(.text)
    ipaddr_addr                              0x08045b37   Thumb Code    24  ip_addr.o(.text)
    ipaddr_ntoa_r                            0x08045b4f   Thumb Code   168  ip_addr.o(.text)
    ipaddr_ntoa                              0x08045bf7   Thumb Code    16  ip_addr.o(.text)
    ip_reass_tmr                             0x08045cd1   Thumb Code    48  ip_frag.o(.text)
    ip_reass                                 0x08045f27   Thumb Code   396  ip_frag.o(.text)
    ip_frag                                  0x080460ef   Thumb Code   424  ip_frag.o(.text)
    lwip_pkt_handle                          0x080462a1   Thumb Code    10  lwip_comm.o(.text)
    lwip_comm_mem_free                       0x080462ab   Thumb Code    12  lwip_comm.o(.text)
    lwip_comm_mem_malloc                     0x080462b7   Thumb Code    50  lwip_comm.o(.text)
    lwip_comm_default_ip_set                 0x080462e9   Thumb Code   196  lwip_comm.o(.text)
    lwip_comm_init                           0x080463ad   Thumb Code   218  lwip_comm.o(.text)
    LwIP_Init                                0x08046487   Thumb Code   220  lwip_comm.o(.text)
    fs_open                                  0x08046617   Thumb Code    70  fs.o(.text)
    fs_close                                 0x0804665d   Thumb Code    12  fs.o(.text)
    fs_read                                  0x08046669   Thumb Code    62  fs.o(.text)
    fs_bytes_left                            0x080466a7   Thumb Code    10  fs.o(.text)
    httpd_init                               0x08047385   Thumb Code    18  httpd.o(.text)
    http_set_ssi_handler                     0x08047397   Thumb Code    26  httpd.o(.text)
    http_set_cgi_handlers                    0x080473b1   Thumb Code    18  httpd.o(.text)
    ADC_Handler                              0x0804740d   Thumb Code   162  httpd_cgi_ssi.o(.text)
    LEDS_CGI_Handler                         0x080474af   Thumb Code   120  httpd_cgi_ssi.o(.text)
    httpd_ssi_init                           0x08047527   Thumb Code    18  httpd_cgi_ssi.o(.text)
    httpd_cgi_init                           0x08047539   Thumb Code    20  httpd_cgi_ssi.o(.text)
    __rt_ctype_table                         0x08047589   Thumb Code    16  rt_ctype_table.o(.text)
    malloc                                   0x08047599   Thumb Code    94  h1_alloc.o(.text)
    free                                     0x080475f7   Thumb Code    78  h1_free.o(.text)
    realloc                                  0x08047645   Thumb Code   184  h1_realloc.o(.text)
    __aeabi_uldivmod                         0x080476fd   Thumb Code     0  lludivv7m.o(.text)
    _ll_udiv                                 0x080476fd   Thumb Code   238  lludivv7m.o(.text)
    __2sprintf                               0x080477ed   Thumb Code    34  noretval__2sprintf.o(.text)
    _printf_pre_padding                      0x08047815   Thumb Code    44  _printf_pad.o(.text)
    _printf_post_padding                     0x08047841   Thumb Code    34  _printf_pad.o(.text)
    _printf_str                              0x08047863   Thumb Code    82  _printf_str.o(.text)
    _printf_int_dec                          0x080478b5   Thumb Code   104  _printf_dec.o(.text)
    _printf_int_hex                          0x0804792d   Thumb Code    84  _printf_hex_int.o(.text)
    _printf_longlong_hex                     0x0804792d   Thumb Code     0  _printf_hex_int.o(.text)
    __printf                                 0x08047985   Thumb Code   388  __printf_flags_ss_wp.o(.text)
    atoi                                     0x08047b0d   Thumb Code    26  atoi.o(.text)
    strchr                                   0x08047b27   Thumb Code    20  strchr.o(.text)
    strstr                                   0x08047b3b   Thumb Code    36  strstr.o(.text)
    memcmp                                   0x08047b5f   Thumb Code    88  memcmp.o(.text)
    strlen                                   0x08047bb7   Thumb Code    62  strlen.o(.text)
    strncmp                                  0x08047bf5   Thumb Code   150  strncmp.o(.text)
    __aeabi_memcpy                           0x08047c8b   Thumb Code     0  rt_memcpy_v6.o(.text)
    __rt_memcpy                              0x08047c8b   Thumb Code   138  rt_memcpy_v6.o(.text)
    _memcpy_lastbytes                        0x08047cf1   Thumb Code     0  rt_memcpy_v6.o(.text)
    __aeabi_memcpy4                          0x08047d15   Thumb Code     0  rt_memcpy_w.o(.text)
    __aeabi_memcpy8                          0x08047d15   Thumb Code     0  rt_memcpy_w.o(.text)
    __rt_memcpy_w                            0x08047d15   Thumb Code   100  rt_memcpy_w.o(.text)
    _memcpy_lastbytes_aligned                0x08047d5d   Thumb Code     0  rt_memcpy_w.o(.text)
    __aeabi_memset                           0x08047d79   Thumb Code    16  aeabi_memset.o(.text)
    __aeabi_memclr                           0x08047d89   Thumb Code     0  rt_memclr.o(.text)
    __rt_memclr                              0x08047d89   Thumb Code    68  rt_memclr.o(.text)
    _memset                                  0x08047d8d   Thumb Code     0  rt_memclr.o(.text)
    __aeabi_memclr4                          0x08047dcd   Thumb Code     0  rt_memclr_w.o(.text)
    __aeabi_memclr8                          0x08047dcd   Thumb Code     0  rt_memclr_w.o(.text)
    __rt_memclr_w                            0x08047dcd   Thumb Code    78  rt_memclr_w.o(.text)
    _memset_w                                0x08047dd1   Thumb Code     0  rt_memclr_w.o(.text)
    strcmp                                   0x08047e1d   Thumb Code   128  strcmpv7m.o(.text)
    __use_two_region_memory                  0x08047e9d   Thumb Code     2  heapauxi.o(.text)
    __rt_heap_escrow                         0x08047e9f   Thumb Code     2  heapauxi.o(.text)
    __rt_heap_expand                         0x08047ea1   Thumb Code     2  heapauxi.o(.text)
    __rt_heap_descriptor                     0x08047ea5   Thumb Code     8  rt_heap_descriptor_intlibspace.o(.text)
    __rt_locale                              0x08047ead   Thumb Code     8  rt_locale_intlibspace.o(.text)
    __aeabi_errno_addr                       0x08047eb5   Thumb Code     8  rt_errno_addr_intlibspace.o(.text)
    __errno$intlibspace                      0x08047eb5   Thumb Code     0  rt_errno_addr_intlibspace.o(.text)
    __rt_errno_addr$intlibspace              0x08047eb5   Thumb Code     0  rt_errno_addr_intlibspace.o(.text)
    __use_no_heap                            0x08047ebd   Thumb Code     2  hguard.o(.text)
    __heap$guard                             0x08047ebf   Thumb Code     2  hguard.o(.text)
    _terminate_user_alloc                    0x08047ec1   Thumb Code     2  init_alloc.o(.text)
    _init_user_alloc                         0x08047ec3   Thumb Code     2  init_alloc.o(.text)
    __Heap_Full                              0x08047ec5   Thumb Code    34  init_alloc.o(.text)
    __Heap_Broken                            0x08047ee7   Thumb Code     6  init_alloc.o(.text)
    _init_alloc                              0x08047eed   Thumb Code    94  init_alloc.o(.text)
    __Heap_Initialize                        0x08047f4b   Thumb Code    10  h1_init.o(.text)
    __Heap_DescSize                          0x08047f55   Thumb Code     4  h1_init.o(.text)
    __read_errno                             0x08047f59   Thumb Code    10  _rserrno.o(.text)
    __set_errno                              0x08047f63   Thumb Code    12  _rserrno.o(.text)
    _printf_int_common                       0x08047f6f   Thumb Code   178  _printf_intcommon.o(.text)
    __lib_sel_fp_printf                      0x08048021   Thumb Code     2  _printf_fp_dec.o(.text)
    _printf_fp_dec_real                      0x080481d3   Thumb Code   620  _printf_fp_dec.o(.text)
    _printf_char_common                      0x0804844b   Thumb Code    32  _printf_char_common.o(.text)
    _sputc                                   0x08048471   Thumb Code    10  _sputc.o(.text)
    _printf_cs_common                        0x0804847b   Thumb Code    20  _printf_char.o(.text)
    _printf_char                             0x0804848f   Thumb Code    16  _printf_char.o(.text)
    _printf_string                           0x0804849f   Thumb Code     8  _printf_char.o(.text)
    __strtod_int                             0x080484e5   Thumb Code    90  strtod.o(.text)
    strtol                                   0x0804854d   Thumb Code   112  strtol.o(.text)
    __user_libspace                          0x080485bd   Thumb Code     8  libspace.o(.text)
    __user_perproc_libspace                  0x080485bd   Thumb Code     0  libspace.o(.text)
    __user_perthread_libspace                0x080485bd   Thumb Code     0  libspace.o(.text)
    __Heap_ProvideMemory                     0x080485c5   Thumb Code    52  h1_extend.o(.text)
    _ll_udiv10                               0x080485f9   Thumb Code   138  lludiv10.o(.text)
    isspace                                  0x08048683   Thumb Code    18  isspace.o(.text)
    _printf_fp_infnan                        0x08048695   Thumb Code   112  _printf_fp_infnan.o(.text)
    _sgetc                                   0x08048715   Thumb Code    30  _sgetc.o(.text)
    _sbackspace                              0x08048733   Thumb Code    34  _sgetc.o(.text)
    _strtoul                                 0x08048755   Thumb Code   158  _strtoul.o(.text)
    _btod_etento                             0x080487f5   Thumb Code   224  bigflt0.o(.text)
    __rt_SIGRTMEM                            0x080488d9   Thumb Code    14  defsig_rtmem_outer.o(.text)
    __I$use$semihosting                      0x080488e7   Thumb Code     0  use_no_semi.o(.text)
    __use_no_semihosting_swi                 0x080488e7   Thumb Code     2  use_no_semi.o(.text)
    __semihosting_library_function           0x080488e9   Thumb Code     0  indicate_semi.o(.text)
    __user_setup_stackheap                   0x080488e9   Thumb Code    74  sys_stackheap_outer.o(.text)
    _chval                                   0x08048933   Thumb Code    28  _chval.o(.text)
    _scanf_really_real                       0x08048b9d   Thumb Code   684  scanf_fp.o(.text)
    exit                                     0x08048e49   Thumb Code    18  exit.o(.text)
    __sig_exit                               0x08048e5b   Thumb Code    10  defsig_exit.o(.text)
    __rt_SIGRTMEM_inner                      0x08048e65   Thumb Code    22  defsig_rtmem_inner.o(.text)
    _sys_exit                                0x08048eb5   Thumb Code     8  sys_exit.o(.text)
    __default_signal_display                 0x08048ec1   Thumb Code    50  defsig_general.o(.text)
    _ttywrch                                 0x08048ef3   Thumb Code    14  sys_wrch.o(.text)
    _scanf_really_hex_real                   0x08048f01   Thumb Code   786  scanf_hexfp.o(.text)
    _scanf_really_infnan                     0x08049221   Thumb Code   292  scanf_infnan.o(.text)
    __aeabi_llsl                             0x08049355   Thumb Code     0  llshl.o(.text)
    _ll_shift_l                              0x08049355   Thumb Code    38  llshl.o(.text)
    _btod_d2e                                0x0804937b   Thumb Code    62  btod.o(CL$$btod_d2e)
    _d2e_denorm_low                          0x080493b9   Thumb Code    70  btod.o(CL$$btod_d2e_denorm_low)
    _d2e_norm_op1                            0x080493ff   Thumb Code    96  btod.o(CL$$btod_d2e_norm_op1)
    __btod_div_common                        0x0804945f   Thumb Code   696  btod.o(CL$$btod_div_common)
    _e2d                                     0x08049799   Thumb Code   122  btod.o(CL$$btod_e2d)
    _e2e                                     0x0804981d   Thumb Code   220  btod.o(CL$$btod_e2e)
    _btod_ediv                               0x080498f9   Thumb Code    42  btod.o(CL$$btod_ediv)
    _btod_edivd                              0x08049923   Thumb Code    42  btod.o(CL$$btod_edivd)
    _btod_emul                               0x0804994d   Thumb Code    42  btod.o(CL$$btod_emul)
    _btod_emuld                              0x08049977   Thumb Code    42  btod.o(CL$$btod_emuld)
    __btod_mult_common                       0x080499a1   Thumb Code   580  btod.o(CL$$btod_mult_common)
    OSStartHighRdy                           0x08049be5   Thumb Code     0  os_cpu_a.o(CODE)
    OSCtxSw                                  0x08049c07   Thumb Code     0  os_cpu_a.o(CODE)
    OSIntCtxSw                               0x08049c11   Thumb Code     0  os_cpu_a.o(CODE)
    PendSV_Handler                           0x08049c1b   Thumb Code     0  os_cpu_a.o(CODE)
    __ARM_fpclassify                         0x08049c7d   Thumb Code    40  fpclassify.o(i.__ARM_fpclassify)
    __mathlib_dbl_overflow                   0x08049ca5   Thumb Code    14  dunder.o(i.__mathlib_dbl_overflow)
    __mathlib_dbl_underflow                  0x08049cb5   Thumb Code    10  dunder.o(i.__mathlib_dbl_underflow)
    __mathlib_narrow                         0x08049cc5   Thumb Code    16  narrow.o(i.__mathlib_narrow)
    __mathlib_tofloat                        0x08049cd5   Thumb Code   184  narrow.o(i.__mathlib_tofloat)
    __support_ldexp                          0x08049d91   Thumb Code    22  ldexp.o(i.__support_ldexp)
    _is_digit                                0x08049da7   Thumb Code    14  __printf_wp.o(i._is_digit)
    atof                                     0x08049db5   Thumb Code    42  atof.o(i.atof)
    frexp                                    0x08049de1   Thumb Code    80  frexp.o(i.frexp)
    ldexp                                    0x08049e39   Thumb Code   116  ldexp.o(i.ldexp)
    sqrt                                     0x08049ead   Thumb Code    76  sqrt.o(i.sqrt)
    _get_lc_ctype                            0x08049ef9   Thumb Code    44  lc_ctype_c.o(locale$$code)
    _get_lc_numeric                          0x08049f25   Thumb Code    44  lc_numeric_c.o(locale$$code)
    __aeabi_d2f                              0x08049f51   Thumb Code     0  d2f.o(x$fpl$d2f)
    _d2f                                     0x08049f51   Thumb Code    98  d2f.o(x$fpl$d2f)
    __aeabi_dadd                             0x08049fb5   Thumb Code     0  daddsub_clz.o(x$fpl$dadd)
    _dadd                                    0x08049fb5   Thumb Code   332  daddsub_clz.o(x$fpl$dadd)
    __fpl_dcheck_NaN1                        0x0804a105   Thumb Code    10  dcheck1.o(x$fpl$dcheck1)
    __fpl_dcmp_Inf                           0x0804a115   Thumb Code    24  dcmpi.o(x$fpl$dcmpinf)
    __aeabi_ddiv                             0x0804a12d   Thumb Code     0  ddiv.o(x$fpl$ddiv)
    _ddiv                                    0x0804a12d   Thumb Code   552  ddiv.o(x$fpl$ddiv)
    __aeabi_cdcmpeq                          0x0804a3dd   Thumb Code     0  deqf.o(x$fpl$deqf)
    _dcmpeq                                  0x0804a3dd   Thumb Code   120  deqf.o(x$fpl$deqf)
    __aeabi_d2iz                             0x0804a455   Thumb Code     0  dfix.o(x$fpl$dfix)
    _dfix                                    0x0804a455   Thumb Code    94  dfix.o(x$fpl$dfix)
    __aeabi_d2uiz                            0x0804a4b5   Thumb Code     0  dfixu.o(x$fpl$dfixu)
    _dfixu                                   0x0804a4b5   Thumb Code    90  dfixu.o(x$fpl$dfixu)
    __aeabi_i2d                              0x0804a50f   Thumb Code     0  dflt_clz.o(x$fpl$dflt)
    _dflt                                    0x0804a50f   Thumb Code    46  dflt_clz.o(x$fpl$dflt)
    __aeabi_ui2d                             0x0804a53d   Thumb Code     0  dflt_clz.o(x$fpl$dfltu)
    _dfltu                                   0x0804a53d   Thumb Code    38  dflt_clz.o(x$fpl$dfltu)
    __aeabi_cdcmple                          0x0804a565   Thumb Code     0  dleqf.o(x$fpl$dleqf)
    _dcmple                                  0x0804a565   Thumb Code   120  dleqf.o(x$fpl$dleqf)
    __fpl_dcmple_InfNaN                      0x0804a5c7   Thumb Code     0  dleqf.o(x$fpl$dleqf)
    __aeabi_dmul                             0x0804a5dd   Thumb Code     0  dmul.o(x$fpl$dmul)
    _dmul                                    0x0804a5dd   Thumb Code   332  dmul.o(x$fpl$dmul)
    __fpl_dnaninf                            0x0804a731   Thumb Code   156  dnaninf.o(x$fpl$dnaninf)
    __fpl_dretinf                            0x0804a7cd   Thumb Code    12  dretinf.o(x$fpl$dretinf)
    __aeabi_cdrcmple                         0x0804a7d9   Thumb Code     0  drleqf.o(x$fpl$drleqf)
    _drcmple                                 0x0804a7d9   Thumb Code   108  drleqf.o(x$fpl$drleqf)
    __aeabi_drsub                            0x0804a845   Thumb Code     0  daddsub_clz.o(x$fpl$drsb)
    _drsb                                    0x0804a845   Thumb Code    22  daddsub_clz.o(x$fpl$drsb)
    _dsqrt                                   0x0804a85d   Thumb Code   404  dsqrt_umaal.o(x$fpl$dsqrt)
    __aeabi_dsub                             0x0804a9f5   Thumb Code     0  daddsub_clz.o(x$fpl$dsub)
    _dsub                                    0x0804a9f5   Thumb Code   464  daddsub_clz.o(x$fpl$dsub)
    __aeabi_f2d                              0x0804abc9   Thumb Code     0  f2d.o(x$fpl$f2d)
    _f2d                                     0x0804abc9   Thumb Code    86  f2d.o(x$fpl$f2d)
    __aeabi_fadd                             0x0804ac21   Thumb Code     0  faddsub_clz.o(x$fpl$fadd)
    _fadd                                    0x0804ac21   Thumb Code   196  faddsub_clz.o(x$fpl$fadd)
    __fpl_fcmp_Inf                           0x0804ace5   Thumb Code    24  fcmpi.o(x$fpl$fcmpinf)
    __aeabi_fdiv                             0x0804acfd   Thumb Code     0  fdiv.o(x$fpl$fdiv)
    _fdiv                                    0x0804acfd   Thumb Code   384  fdiv.o(x$fpl$fdiv)
    __aeabi_cfcmpeq                          0x0804ae81   Thumb Code     0  feqf.o(x$fpl$feqf)
    _fcmpeq                                  0x0804ae81   Thumb Code   104  feqf.o(x$fpl$feqf)
    __aeabi_f2iz                             0x0804aee9   Thumb Code     0  ffix.o(x$fpl$ffix)
    _ffix                                    0x0804aee9   Thumb Code    54  ffix.o(x$fpl$ffix)
    __aeabi_f2uiz                            0x0804af21   Thumb Code     0  ffixu.o(x$fpl$ffixu)
    _ffixu                                   0x0804af21   Thumb Code    62  ffixu.o(x$fpl$ffixu)
    __aeabi_i2f                              0x0804af61   Thumb Code     0  fflt_clz.o(x$fpl$fflt)
    _fflt                                    0x0804af61   Thumb Code    48  fflt_clz.o(x$fpl$fflt)
    __aeabi_ui2f                             0x0804af91   Thumb Code     0  fflt_clz.o(x$fpl$ffltu)
    _ffltu                                   0x0804af91   Thumb Code    38  fflt_clz.o(x$fpl$ffltu)
    __aeabi_cfcmple                          0x0804afb9   Thumb Code     0  fleqf.o(x$fpl$fleqf)
    _fcmple                                  0x0804afb9   Thumb Code   104  fleqf.o(x$fpl$fleqf)
    __fpl_fcmple_InfNaN                      0x0804b00b   Thumb Code     0  fleqf.o(x$fpl$fleqf)
    __aeabi_fmul                             0x0804b021   Thumb Code     0  fmul.o(x$fpl$fmul)
    _fmul                                    0x0804b021   Thumb Code   258  fmul.o(x$fpl$fmul)
    __fpl_fnaninf                            0x0804b123   Thumb Code   140  fnaninf.o(x$fpl$fnaninf)
    __fpl_fretinf                            0x0804b1af   Thumb Code    10  fretinf.o(x$fpl$fretinf)
    __aeabi_cfrcmple                         0x0804b1b9   Thumb Code     0  frleqf.o(x$fpl$frleqf)
    _frcmple                                 0x0804b1b9   Thumb Code    98  frleqf.o(x$fpl$frleqf)
    __aeabi_frsub                            0x0804b21b   Thumb Code     0  faddsub_clz.o(x$fpl$frsb)
    _frsb                                    0x0804b21b   Thumb Code    20  faddsub_clz.o(x$fpl$frsb)
    __aeabi_fsub                             0x0804b231   Thumb Code     0  faddsub_clz.o(x$fpl$fsub)
    _fsub                                    0x0804b231   Thumb Code   234  faddsub_clz.o(x$fpl$fsub)
    __ieee_status                            0x0804b31b   Thumb Code     6  istatus.o(x$fpl$ieeestatus)
    _printf_fp_dec                           0x0804b321   Thumb Code     4  printf1.o(x$fpl$printf1)
    __fpl_return_NaN                         0x0804b325   Thumb Code   100  retnan.o(x$fpl$retnan)
    __ARM_scalbn                             0x0804b389   Thumb Code    92  scalbn.o(x$fpl$scalbn)
    _scanf_real                              0x0804b3e5   Thumb Code     4  scanf1.o(x$fpl$scanf1)
    _scanf_hex_real                          0x0804b3e9   Thumb Code     4  scanf2.o(x$fpl$scanf2)
    _scanf_infnan                            0x0804b3ed   Thumb Code     4  scanf2.o(x$fpl$scanf2)
    __fpl_cmpreturn                          0x0804b3f1   Thumb Code    48  trapv.o(x$fpl$trapveneer)
    __I$use$fp                               0x0804b420   Number         0  usenofp.o(x$fpl$usenofp)
    chCRCHTalbe                              0x0804b45d   Data         256  mainuart.o(.constdata)
    chCRCLTalbe                              0x0804b55d   Data         256  mainuart.o(.constdata)
    FSMC_DefaultTimingStruct                 0x0804bc9c   Data          28  stm32f4xx_fsmc.o(.constdata)
    OSCfg_IdleTaskStkBasePtr                 0x0804be4c   Data           4  os_cfg_app.o(.constdata)
    OSCfg_IdleTaskStkLimit                   0x0804be50   Data           4  os_cfg_app.o(.constdata)
    OSCfg_IdleTaskStkSize                    0x0804be54   Data           4  os_cfg_app.o(.constdata)
    OSCfg_IdleTaskStkSizeRAM                 0x0804be58   Data           4  os_cfg_app.o(.constdata)
    OSCfg_IntQBasePtr                        0x0804be5c   Data           4  os_cfg_app.o(.constdata)
    OSCfg_IntQSize                           0x0804be60   Data           2  os_cfg_app.o(.constdata)
    OSCfg_IntQSizeRAM                        0x0804be64   Data           4  os_cfg_app.o(.constdata)
    OSCfg_IntQTaskStkBasePtr                 0x0804be68   Data           4  os_cfg_app.o(.constdata)
    OSCfg_IntQTaskStkLimit                   0x0804be6c   Data           4  os_cfg_app.o(.constdata)
    OSCfg_IntQTaskStkSize                    0x0804be70   Data           4  os_cfg_app.o(.constdata)
    OSCfg_IntQTaskStkSizeRAM                 0x0804be74   Data           4  os_cfg_app.o(.constdata)
    OSCfg_ISRStkBasePtr                      0x0804be78   Data           4  os_cfg_app.o(.constdata)
    OSCfg_ISRStkSize                         0x0804be7c   Data           4  os_cfg_app.o(.constdata)
    OSCfg_ISRStkSizeRAM                      0x0804be80   Data           4  os_cfg_app.o(.constdata)
    OSCfg_MsgPoolSize                        0x0804be84   Data           2  os_cfg_app.o(.constdata)
    OSCfg_MsgPoolSizeRAM                     0x0804be88   Data           4  os_cfg_app.o(.constdata)
    OSCfg_MsgPoolBasePtr                     0x0804be8c   Data           4  os_cfg_app.o(.constdata)
    OSCfg_StatTaskPrio                       0x0804be90   Data           1  os_cfg_app.o(.constdata)
    OSCfg_StatTaskRate_Hz                    0x0804be94   Data           4  os_cfg_app.o(.constdata)
    OSCfg_StatTaskStkBasePtr                 0x0804be98   Data           4  os_cfg_app.o(.constdata)
    OSCfg_StatTaskStkLimit                   0x0804be9c   Data           4  os_cfg_app.o(.constdata)
    OSCfg_StatTaskStkSize                    0x0804bea0   Data           4  os_cfg_app.o(.constdata)
    OSCfg_StatTaskStkSizeRAM                 0x0804bea4   Data           4  os_cfg_app.o(.constdata)
    OSCfg_StkSizeMin                         0x0804bea8   Data           4  os_cfg_app.o(.constdata)
    OSCfg_TickRate_Hz                        0x0804beac   Data           4  os_cfg_app.o(.constdata)
    OSCfg_TickTaskPrio                       0x0804beb0   Data           1  os_cfg_app.o(.constdata)
    OSCfg_TickTaskStkBasePtr                 0x0804beb4   Data           4  os_cfg_app.o(.constdata)
    OSCfg_TickTaskStkLimit                   0x0804beb8   Data           4  os_cfg_app.o(.constdata)
    OSCfg_TickTaskStkSize                    0x0804bebc   Data           4  os_cfg_app.o(.constdata)
    OSCfg_TickTaskStkSizeRAM                 0x0804bec0   Data           4  os_cfg_app.o(.constdata)
    OSCfg_TickWheelSize                      0x0804bec4   Data           2  os_cfg_app.o(.constdata)
    OSCfg_TickWheelSizeRAM                   0x0804bec8   Data           4  os_cfg_app.o(.constdata)
    OSCfg_TmrTaskPrio                        0x0804becc   Data           1  os_cfg_app.o(.constdata)
    OSCfg_TmrTaskRate_Hz                     0x0804bed0   Data           4  os_cfg_app.o(.constdata)
    OSCfg_TmrTaskStkBasePtr                  0x0804bed4   Data           4  os_cfg_app.o(.constdata)
    OSCfg_TmrTaskStkLimit                    0x0804bed8   Data           4  os_cfg_app.o(.constdata)
    OSCfg_TmrTaskStkSize                     0x0804bedc   Data           4  os_cfg_app.o(.constdata)
    OSCfg_TmrTaskStkSizeRAM                  0x0804bee0   Data           4  os_cfg_app.o(.constdata)
    OSCfg_TmrWheelSize                       0x0804bee4   Data           2  os_cfg_app.o(.constdata)
    OSCfg_TmrWheelSizeRAM                    0x0804bee8   Data           4  os_cfg_app.o(.constdata)
    OSCfg_DataSizeRAM                        0x0804beec   Data           4  os_cfg_app.o(.constdata)
    memtblsize                               0x0804bef0   Data          12  malloc.o(.constdata)
    memblksize                               0x0804befc   Data          12  malloc.o(.constdata)
    memsize                                  0x0804bf08   Data          12  malloc.o(.constdata)
    pvNullPointer                            0x0804bf14   Data           4  sys_arch.o(.constdata)
    ethbroadcast                             0x0804bf18   Data           6  etharp.o(.constdata)
    ethzero                                  0x0804bf1e   Data           6  etharp.o(.constdata)
    tcp_state_str                            0x0804bf5c   Data          44  tcp.o(.constdata)
    tcp_backoff                              0x0804bf88   Data          13  tcp.o(.constdata)
    tcp_persist_backoff                      0x0804bf95   Data           7  tcp.o(.constdata)
    tcp_pcb_lists                            0x0804bf9c   Data          16  tcp.o(.constdata)
    ip_addr_any                              0x0804bfac   Data           4  ip_addr.o(.constdata)
    ip_addr_broadcast                        0x0804bfb0   Data           4  ip_addr.o(.constdata)
    file__STM32F4x7_files_logo_jpg           0x08058ba4   Data          20  fs.o(.constdata)
    file__STM32F4x7_files_ST_gif             0x08058bb8   Data          20  fs.o(.constdata)
    file__STM32F4x7_files_stm32_jpg          0x08058bcc   Data          20  fs.o(.constdata)
    file__404_html                           0x08058be0   Data          20  fs.o(.constdata)
    file__index_html                         0x08058bf4   Data          20  fs.o(.constdata)
    file__STM32F4x7ADC_shtml                 0x08058c08   Data          20  fs.o(.constdata)
    file__STM32F4x7LED_html                  0x08058c1c   Data          20  fs.o(.constdata)
    g_psDefaultFilenames                     0x08058c30   Data          40  httpd.o(.constdata)
    g_pcTagLeadIn                            0x08058c58   Data           4  httpd.o(.constdata)
    g_pcTagLeadOut                           0x08058c5c   Data           4  httpd.o(.constdata)
    LEDS_CGI                                 0x08058c60   Data           8  httpd_cgi_ssi.o(.constdata)
    Region$$Table$$Base                      0x08058f20   Number         0  anon$$obj.o(Region$$Table)
    Region$$Table$$Limit                     0x08058f40   Number         0  anon$$obj.o(Region$$Table)
    __aeabi_HUGE_VAL                         0x08058f40   Data           0  fpconst.o(c$$dinf)
    __aeabi_HUGE_VALL                        0x08058f40   Data           0  fpconst.o(c$$dinf)
    __aeabi_INFINITY                         0x08058f40   Data           0  fpconst.o(c$$dinf)
    __dInf                                   0x08058f40   Data           0  fpconst.o(c$$dinf)
    __huge_val                               0x08058f40   Data           0  fpconst.o(c$$dinf)
    __dbl_max                                0x08058f48   Data           0  fpconst.o(c$$dmax)
    __ctype                                  0x08058f5d   Data           0  lc_ctype_c.o(locale$$data)
    mem3base                                 0x10000000   Data       32768  malloc.o(.ARM.__AT_0x10000000)
    mem3mapbase                              0x10008000   Data        2048  malloc.o(.ARM.__AT_0x10008000)
    usermem                                  0x10009000   Data       28672  malloc.o(.ARM.__AT_0x10009000)
    debug                                    0x20000000   Data           1  main.o(.data)
    debug1                                   0x20000001   Data           1  main.o(.data)
    debug2                                   0x20000002   Data           1  main.o(.data)
    SPItime_Flag                             0x20000008   Data           1  cdv_config.o(.data)
    g_dipCtrlWorker                          0x20000009   Data           1  cdv_config.o(.data)
    g_noWrite                                0x2000000a   Data           1  cdv_config.o(.data)
    g_cdvStat                                0x2000000c   Data           1  cdv_define.o(.data)
    g_nowDoRes                               0x2000000d   Data           1  cdv_define.o(.data)
    tm1Re                                    0x20000010   Data           4  cdv_define.o(.data)
    tm2Re                                    0x20000014   Data           4  cdv_define.o(.data)
    tm3Re                                    0x20000018   Data           4  cdv_define.o(.data)
    workerName                               0x2000001c   Data          80  cdv_define.o(.data)
    RPressureCnt                             0x2000006c   Data           4  cdv_define.o(.data)
    OfflineScript                            0x20000070   Data           4  offline.o(.data)
    OfflineScriptLen                         0x20000074   Data           4  offline.o(.data)
    err_times1                               0x20000078   Data           1  fpga_spi.o(.data)
    err_times2                               0x20000079   Data           1  fpga_spi.o(.data)
    failed_times                             0x2000007a   Data           2  fpga_spi.o(.data)
    CDV_EXI_NUM                              0x2000007c   Data           1  fpga_spi.o(.data)
    CDV_EXO_NUM                              0x2000007d   Data           1  fpga_spi.o(.data)
    FPGA_Mode                                0x2000007e   Data           1  fpga_spi.o(.data)
    fpga_i                                   0x20000080   Data           4  mainuart.o(.data)
    MainUsart                                0x20000084   Data           1  mainuart.o(.data)
    ononononon                               0x20000088   Data           4  mainuart.o(.data)
    g_cacheTx                                0x2000008c   Data           8  mainuart.o(.data)
    g_needRequest                            0x20000094   Data           1  mainuart.o(.data)
    cdv_error                                0x20000095   Data         460  mainuart.o(.data)
    WorkerStatusName                         0x20000268   Data          24  worker.o(.data)
    time_cnt                                 0x20000280   Data           1  worker.o(.data)
    time_which                               0x20000281   Data           1  worker.o(.data)
    time_tmp                                 0x20000284   Data           4  worker.o(.data)
    time_max                                 0x20000288   Data           4  worker.o(.data)
    version                                  0x2000028c   Data           5  cascade.o(.data)
    slaveTable                               0x20000294   Data           4  cascade.o(.data)
    slaveTable2                              0x20000298   Data           4  cascade.o(.data)
    slaveTableLen                            0x2000029c   Data           1  cascade.o(.data)
    g_cascadeBuf                             0x200002a0   Data           4  cascade.o(.data)
    g_coilCascade                            0x200002a4   Data           4  cascade.o(.data)
    g_regCascade                             0x200002a8   Data           4  cascade.o(.data)
    gp_val                                   0x200002ac   Data          12  cascade.o(.data)
    gp_coil                                  0x200002b8   Data           2  cascade.o(.data)
    CascadeMap                               0x200002bc   Data           4  cascade.o(.data)
    CascadeMapLen                            0x200002c0   Data           1  cascade.o(.data)
    tcp_server_recvbuf                       0x200002c4   Data           4  tcp_server.o(.data)
    tcp_server_flag                          0x200002c8   Data           1  tcp_server.o(.data)
    gConn                                    0x200002cc   Data           4  tcp_server.o(.data)
    g_connected                              0x200002d0   Data           4  tcp_server.o(.data)
    lenlenlen                                0x200002d4   Data           4  tcp_server.o(.data)
    closeTcp                                 0x200002e0   Data           1  udpmain.o(.data)
    g_dip                                    0x200002e4   Data           1  io.o(.data)
    g_i                                      0x200002e8   Data           4  io.o(.data)
    g_o                                      0x200002ec   Data           4  io.o(.data)
    g_var                                    0x200002f0   Data           4  var.o(.data)
    g_msg                                    0x200002f4   Data           4  msg.o(.data)
    Time_1ms                                 0x200002f8   Data           4  time.o(.data)
    Time_10ms                                0x200002fc   Data           4  time.o(.data)
    Time_100ms                               0x20000300   Data           4  time.o(.data)
    Time_1s                                  0x20000304   Data           4  time.o(.data)
    p_ReadClock                              0x20000308   Data          16  time.o(.data)
    g_adcval                                 0x20000318   Data           4  adc.o(.data)
    g_dacval                                 0x2000031c   Data           4  dac.o(.data)
    transducer_speed                         0x20000320   Data           4  dac.o(.data)
    transducer_time                          0x20000324   Data           4  dac.o(.data)
    transducer_vol                           0x20000328   Data           4  dac.o(.data)
    transducer1_speed                        0x2000032c   Data           4  dac.o(.data)
    transducer1_time                         0x20000330   Data           4  dac.o(.data)
    transducer1_vol                          0x20000334   Data           4  dac.o(.data)
    transducer2_speed                        0x20000338   Data           2  dac.o(.data)
    transducer2_time                         0x2000033a   Data           1  dac.o(.data)
    transducer2_vol                          0x2000033c   Data           4  dac.o(.data)
    nAlarmCount                              0x20000340   Data           4  alarm.o(.data)
    Alarmflag                                0x20000344   Data           1  alarm.o(.data)
    map_start_cache                          0x20000348   Data           4  memmng.o(.data)
    g_pUsart1RxBuf                           0x20000358   Data           4  uart1.o(.data)
    g_Usart1BufLen                           0x2000035c   Data           1  uart1.o(.data)
    g_Usart1RxLen                            0x2000035d   Data           1  uart1.o(.data)
    g_pUart2RxBuf                            0x20000360   Data           4  uart2.o(.data)
    g_Uart2BufLen                            0x20000364   Data           1  uart2.o(.data)
    g_Uart2RxLen                             0x20000365   Data           1  uart2.o(.data)
    USART3_RX_CNT                            0x20000368   Data           1  uart3.o(.data)
    USART3_REC_OVER                          0x20000369   Data           1  uart3.o(.data)
    g_pUsart3RxBuf                           0x2000036c   Data           4  uart3.o(.data)
    g_Usart3BufLen                           0x20000370   Data           1  uart3.o(.data)
    g_Usart3RxLen                            0x20000371   Data           1  uart3.o(.data)
    UART4_RX_CNT                             0x20000374   Data           1  uart4.o(.data)
    UART4_REC_OVER                           0x20000375   Data           1  uart4.o(.data)
    g_pUart4RxBuf                            0x20000378   Data           4  uart4.o(.data)
    g_Uart4BufLen                            0x2000037c   Data           1  uart4.o(.data)
    g_Uart4RxLen                             0x2000037d   Data           1  uart4.o(.data)
    RS485_RX_CNT                             0x20000380   Data           4  uart4.o(.data)
    UART5_RX_CNT                             0x20000384   Data           1  uart5.o(.data)
    UART5_REC_OVER                           0x20000385   Data           1  uart5.o(.data)
    g_pUart5RxBuf                            0x20000388   Data           4  uart5.o(.data)
    g_Uart5BufLen                            0x2000038c   Data           1  uart5.o(.data)
    g_Uart5RxLen                             0x2000038d   Data           1  uart5.o(.data)
    USART6_RX_CNT                            0x20000390   Data           1  uart6.o(.data)
    USART6_REC_OVER                          0x20000391   Data           1  uart6.o(.data)
    g_pUart6RxBuf                            0x20000394   Data           4  uart6.o(.data)
    g_Uart6BufLen                            0x20000398   Data           1  uart6.o(.data)
    g_Uart6RxLen                             0x20000399   Data           1  uart6.o(.data)
    gstartTime                               0x2000039c   Data           4  uart6.o(.data)
    gendTime                                 0x200003a0   Data           4  uart6.o(.data)
    gtime                                    0x200003a4   Data           4  uart6.o(.data)
    TxBuffer                                 0x200003a8   Data           4  spi3.o(.data)
    Tx_Idx                                   0x200003ac   Data           1  spi3.o(.data)
    Tx_len                                   0x200003ad   Data           1  spi3.o(.data)
    Rx_Idx                                   0x200003ae   Data           1  spi3.o(.data)
    p_UartSet                                0x200003b0   Data          24  uartx.o(.data)
    p_UartSend                               0x200003c8   Data          24  uartx.o(.data)
    p_UartTR                                 0x200003e0   Data          24  uartx.o(.data)
    EthStatus                                0x200003f8   Data           4  lan8720.o(.data)
    DMARxDscrTab                             0x200003fc   Data           4  lan8720.o(.data)
    DMATxDscrTab                             0x20000400   Data           4  lan8720.o(.data)
    Rx_Buff                                  0x20000404   Data           4  lan8720.o(.data)
    Tx_Buff                                  0x20000408   Data           4  lan8720.o(.data)
    isLinkUp                                 0x2000040c   Data           1  lan8720.o(.data)
    SystemCoreClock                          0x20000414   Data           4  system_stm32f4xx.o(.data)
    AHBPrescTable                            0x20000418   Data          16  system_stm32f4xx.o(.data)
    DMATxDescToSet                           0x20000438   Data           4  stm32f4x7_eth.o(.data)
    DMARxDescToGet                           0x2000043c   Data           4  stm32f4x7_eth.o(.data)
    DMA_RX_FRAME_infos                       0x20000440   Data           4  stm32f4x7_eth.o(.data)
    Frame_Rx_index                           0x20000444   Data           4  stm32f4x7_eth.o(.data)
    CPU_TS_TmrFreq_Hz                        0x20000448   Data           4  cpu_core.o(.data)
    Mem_PoolTbl                              0x2000044c   Data           4  lib_mem.o(.data)
    OSPrioTbl                                0x20000450   Data           8  os_prio.o(.data)
    OSIdleTaskCtr                            0x20000458   Data           4  os_var.o(.data)
    OSIntNestingCtr                          0x2000045c   Data           1  os_var.o(.data)
    OSRunning                                0x2000045d   Data           1  os_var.o(.data)
    OSMemQty                                 0x2000045e   Data           2  os_var.o(.data)
    OSMutexQty                               0x20000460   Data           2  os_var.o(.data)
    OSPrioCur                                0x20000462   Data           1  os_var.o(.data)
    OSPrioHighRdy                            0x20000463   Data           1  os_var.o(.data)
    OSPrioSaved                              0x20000464   Data           1  os_var.o(.data)
    OSQQty                                   0x20000466   Data           2  os_var.o(.data)
    OSSchedLockNestingCtr                    0x20000468   Data           1  os_var.o(.data)
    OSSchedRoundRobinDfltTimeQuanta          0x2000046c   Data           4  os_var.o(.data)
    OSSchedRoundRobinEn                      0x20000470   Data           1  os_var.o(.data)
    OSSemQty                                 0x20000472   Data           2  os_var.o(.data)
    OSTaskCtxSwCtr                           0x20000474   Data           4  os_var.o(.data)
    OSTaskQty                                0x20000478   Data           2  os_var.o(.data)
    OSTaskRegNextAvailID                     0x2000047a   Data           1  os_var.o(.data)
    OSTickCtr                                0x2000047c   Data           4  os_var.o(.data)
    OSTickTaskTimeMax                        0x20000480   Data           4  os_var.o(.data)
    OSTmrQty                                 0x20000484   Data           2  os_var.o(.data)
    OSTmrTaskTimeMax                         0x20000488   Data           4  os_var.o(.data)
    OSTmrTickCtr                             0x2000048c   Data           4  os_var.o(.data)
    OSTmrUpdateCnt                           0x20000490   Data           4  os_var.o(.data)
    OSTmrUpdateCtr                           0x20000494   Data           4  os_var.o(.data)
    OSTCBCurPtr                              0x20000498   Data           4  os_var.o(.data)
    OSTCBHighRdyPtr                          0x2000049c   Data           4  os_var.o(.data)
    OS_CPU_ExceptStkBase                     0x200004a0   Data           4  os_cpu_c.o(.data)
    global_start                             0x200004a4   Data           4  delay.o(.data)
    global_clk                               0x200004a8   Data           4  delay.o(.data)
    global_cnt1                              0x200004ac   Data           4  delay.o(.data)
    global_cnt2                              0x200004b0   Data           4  delay.o(.data)
    cdvTimeTick                              0x200004b8   Data           4  delay.o(.data)
    CHECK_FLASH                              0x200004bc   Data           5  flash.o(.data)
    mallco_dev                               0x200004c4   Data          36  malloc.o(.data)
    netif_list                               0x20000500   Data           4  netif.o(.data)
    netif_default                            0x20000504   Data           4  netif.o(.data)
    tcp_ticks                                0x20000514   Data           4  tcp.o(.data)
    tcp_bound_pcbs                           0x20000518   Data           4  tcp.o(.data)
    tcp_listen_pcbs                          0x2000051c   Data           4  tcp.o(.data)
    tcp_active_pcbs                          0x20000520   Data           4  tcp.o(.data)
    tcp_tw_pcbs                              0x20000524   Data           4  tcp.o(.data)
    tcp_tmp_pcb                              0x20000528   Data           4  tcp.o(.data)
    tcp_active_pcbs_changed                  0x2000052c   Data           1  tcp.o(.data)
    tcp_input_pcb                            0x20000550   Data           4  tcp_in.o(.data)
    udp_pcbs                                 0x20000560   Data           4  udp.o(.data)
    current_netif                            0x20000564   Data           4  ip.o(.data)
    current_header                           0x20000568   Data           4  ip.o(.data)
    current_iphdr_src                        0x2000056c   Data           4  ip.o(.data)
    current_iphdr_dest                       0x20000570   Data           4  ip.o(.data)
    TCPIP_THREAD_TASK_STK                    0x20000580   Data           4  lwip_comm.o(.data)
    LWIP_DHCP_TASK_STK                       0x20000584   Data           4  lwip_comm.o(.data)
    g_pcSSIExtensions                        0x2000058c   Data          16  httpd.o(.data)
    g_pfnSSIHandler                          0x2000059c   Data           4  httpd.o(.data)
    g_iNumTags                               0x200005a0   Data           4  httpd.o(.data)
    g_ppcTags                                0x200005a4   Data           4  httpd.o(.data)
    g_pCGIs                                  0x200005a8   Data           4  httpd.o(.data)
    g_iNumCGIs                               0x200005ac   Data           4  httpd.o(.data)
    ADC_Page_SSI_Handler                     0x200005b0   Data           4  httpd_cgi_ssi.o(.data)
    ADC_not_configured                       0x200005b4   Data           4  httpd_cgi_ssi.o(.data)
    TAGCHAR                                  0x200005b8   Data           4  httpd_cgi_ssi.o(.data)
    TAGS                                     0x200005bc   Data           4  httpd_cgi_ssi.o(.data)
    CGI_TAB                                  0x200005c0   Data           8  httpd_cgi_ssi.o(.data)
    START_TASK_STK                           0x200005c8   Data         512  main.o(.bss)
    USART_TASK_STK                           0x200007c8   Data         512  main.o(.bss)
    LED1_TASK_STK                            0x200009c8   Data         512  main.o(.bss)
    FLOAT_TASK_STK                           0x20000bc8   Data         512  main.o(.bss)
    WORKER_MANAGE_TASK_STK                   0x20000dc8   Data         512  main.o(.bss)
    PARSE_TASK_STK                           0x20000fc8   Data        1024  main.o(.bss)
    VALVE_TASK_STK                           0x200013c8   Data         512  main.o(.bss)
    MOTO_TASK_STK                            0x200015c8   Data         512  main.o(.bss)
    g_scriptInfo                             0x200017c8   Data          20  cdv_define.o(.bss)
    tmr1                                     0x200017dc   Data          44  cdv_define.o(.bss)
    tmr2                                     0x20001808   Data          44  cdv_define.o(.bss)
    tmr3                                     0x20001834   Data          44  cdv_define.o(.bss)
    StartTaskTCB                             0x20001860   Data         172  cdv_define.o(.bss)
    UsartRecvTaskTCB                         0x2000190c   Data         172  cdv_define.o(.bss)
    UsartSendTaskTCB                         0x200019b8   Data         172  cdv_define.o(.bss)
    CdvRefreshTaskTCB                        0x20001a64   Data         172  cdv_define.o(.bss)
    CdvValveTaskTCB                          0x20001b10   Data         172  cdv_define.o(.bss)
    CdvMotoTaskTCB                           0x20001bbc   Data         172  cdv_define.o(.bss)
    WorkerManageTaskTCB                      0x20001c68   Data         172  cdv_define.o(.bss)
    WorkerTaskTCB                            0x20001d14   Data        2752  cdv_define.o(.bss)
    TaskParseTCB                             0x200027d4   Data         172  cdv_define.o(.bss)
    WORKER_TASK_STK                          0x20002880   Data       25600  cdv_define.o(.bss)
    TX_SEM                                   0x20008c80   Data          28  cdv_define.o(.bss)
    WORKER_SEM                               0x20008c9c   Data          28  cdv_define.o(.bss)
    MOTO_SEM                                 0x20008cb8   Data          28  cdv_define.o(.bss)
    MEM_SEM                                  0x20008cd4   Data          28  cdv_define.o(.bss)
    MSG_SEM                                  0x20008cf0   Data          28  cdv_define.o(.bss)
    LIST_SEM                                 0x20008d0c   Data          28  cdv_define.o(.bss)
    COIL_SEM                                 0x20008d28   Data          28  cdv_define.o(.bss)
    COM_SEM                                  0x20008d44   Data         168  cdv_define.o(.bss)
    TCP_TX_SEM                               0x20008dec   Data          28  cdv_define.o(.bss)
    RPressureData                            0x20008e08   Data         800  cdv_define.o(.bss)
    Para_Buf                                 0x20009128   Data          48  mainuart.o(.bss)
    g_olCache                                0x20009158   Data          12  mainuart.o(.bss)
    g_scriptRecv                             0x20009164   Data          28  mainuart.o(.bss)
    g_uartRx                                 0x20009180   Data         908  mainuart.o(.bss)
    g_uartTx                                 0x2000950c   Data          24  mainuart.o(.bss)
    logInf                                   0x20009524   Data         104  log.o(.bss)
    g_line                                   0x2000958c   Data          44  newscript.o(.bss)
    g_modbusCoil                             0x200095b8   Data          32  modbus.o(.bss)
    g_modbusInCoil                           0x200095d8   Data          32  modbus.o(.bss)
    g_modbusReg                              0x200095f8   Data        1600  modbus.o(.bss)
    g_modbusInReg                            0x20009c38   Data          64  modbus.o(.bss)
    g_threadInfo                             0x20009c78   Data         192  worker.o(.bss)
    time                                     0x20009d38   Data         400  worker.o(.bss)
    g_portCmdCache                           0x20009ec8   Data          12  cascade.o(.bss)
    REG_MAP                                  0x20009ed4   Data        5600  cascade.o(.bss)
    COIL_MAP                                 0x2000b4b4   Data         160  cascade.o(.bss)
    TcpConnectTaskTCB                        0x2000b554   Data         172  tcp_server.o(.bss)
    TCPCONNECT_TASK_STK                      0x2000b600   Data        1200  tcp_server.o(.bss)
    TcpServerTaskTCB                         0x2000bab0   Data         172  tcp_server.o(.bss)
    TCPSERVER_TASK_STK                       0x2000bb5c   Data        1024  tcp_server.o(.bss)
    UdpServerTaskTCB                         0x2000bf5c   Data         172  udpmain.o(.bss)
    UDPSERVER_TASK_STK                       0x2000c008   Data         512  udpmain.o(.bss)
    g_cdvI                                   0x2000c208   Data         160  io.o(.bss)
    g_cdvO                                   0x2000c2a8   Data         176  io.o(.bss)
    g_dipSW                                  0x2000c358   Data          24  io.o(.bss)
    PLUSE_SEM                                0x2000c370   Data          28  io.o(.bss)
    g_pluse                                  0x2000c38c   Data          32  io.o(.bss)
    adc_par                                  0x2000c3ac   Data         544  adc.o(.bss)
    buff_x                                   0x2000c5cc   Data         200  adc.o(.bss)
    buff_v                                   0x2000c694   Data         400  adc.o(.bss)
    adc3_value2                              0x2000c824   Data         200  adc.o(.bss)
    AD_Value                                 0x2000c8ec   Data         200  adc.o(.bss)
    sum1                                     0x2000c9b4   Data         100  adc.o(.bss)
    sum2                                     0x2000ca18   Data         100  adc.o(.bss)
    dac_val_tmp                              0x2000ca7c   Data          16  dac.o(.bss)
    dac_par                                  0x2000ca8c   Data         160  dac.o(.bss)
    strAlarmInfo                             0x2000cb2c   Data         400  alarm.o(.bss)
    USART3_RX_BUF                            0x2000ccbc   Data         255  uart3.o(.bss)
    UART4_RX_BUF                             0x2000cdbb   Data          16  uart4.o(.bss)
    RS485_RX_BUF                             0x2000cdcb   Data          16  uart4.o(.bss)
    UART5_RX_BUF                             0x2000cddb   Data          16  uart5.o(.bss)
    RxBuffer                                 0x2000cdeb   Data         256  spi3.o(.bss)
    ETH_InitStructure                        0x2000ceec   Data         188  lan8720.o(.bss)
    RX_Frame_Descriptor                      0x2000cfa8   Data          12  stm32f4x7_eth.o(.bss)
    CPU_Name                                 0x2000cfb4   Data          16  cpu_core.o(.bss)
    Mem_PoolHeap                             0x2000cfc4   Data          72  lib_mem.o(.bss)
    Mem_Heap                                 0x2000d00c   Data        1024  lib_mem.o(.bss)
    OSCfg_IdleTaskStk                        0x2000d40c   Data         512  os_cfg_app.o(.bss)
    OSCfg_ISRStk                             0x2000d60c   Data         512  os_cfg_app.o(.bss)
    OSCfg_MsgPool                            0x2000d80c   Data        1600  os_cfg_app.o(.bss)
    OSCfg_TickTaskStk                        0x2000de4c   Data         512  os_cfg_app.o(.bss)
    OSCfg_TickWheel                          0x2000e04c   Data         136  os_cfg_app.o(.bss)
    OSCfg_TmrTaskStk                         0x2000e0d4   Data         512  os_cfg_app.o(.bss)
    OSCfg_TmrWheel                           0x2000e2d4   Data         136  os_cfg_app.o(.bss)
    OSIdleTaskTCB                            0x2000e35c   Data         172  os_var.o(.bss)
    OSMsgPool                                0x2000e408   Data          12  os_var.o(.bss)
    OSRdyList                                0x2000e414   Data         768  os_var.o(.bss)
    OSTickTaskTCB                            0x2000e714   Data         172  os_var.o(.bss)
    OSTmrTaskTCB                             0x2000e7c0   Data         172  os_var.o(.bss)
    cdvStartTime                             0x2000e86c   Data          80  delay.o(.bss)
    cdvEndTime                               0x2000e8bc   Data          80  delay.o(.bss)
    TcpipthreadTaskTCB                       0x2000e90c   Data         172  sys_arch.o(.bss)
    ram_heap                                 0x2000eaa4   Data        4820  mem.o(.bss)
    lwipdev                                  0x200124e8   Data          23  lwip_comm.o(.bss)
    lwip_netif                               0x20012500   Data          52  lwip_comm.o(.bss)
    LwipdhcpTaskTCB                          0x20012534   Data         172  lwip_comm.o(.bss)
    fs_memory                                0x200125e0   Data         240  fs.o(.bss)
    __libspace_start                         0x20012ad0   Data          96  libspace.o(.bss)
    __temporary_stack_top$libspace           0x20012b30   Data           0  libspace.o(.bss)
    mem_base                                 0x68000000   Data       786432  memmng.o(.ARM.__AT_0x68000000)
    mem_mapbase                              0x680c0000   Data       196608  memmng.o(.ARM.__AT_0x680C0000)



==============================================================================

Memory Map of the image

  Image Entry point : 0x08020189

  Load Region LR_IROM1 (Base: 0x08020000, Size: 0x00039644, Max: 0x000e0000, ABSOLUTE, COMPRESSED[0x0003927c])

    Execution Region ER_IROM1 (Exec base: 0x08020000, Load base: 0x08020000, Size: 0x0003907c, Max: 0x000e0000, ABSOLUTE)

    Exec Addr    Load Addr    Size         Type   Attr      Idx    E Section Name        Object

    0x08020000   0x08020000   0x00000188   Data   RO         1888    RESET               startup_stm32f40_41xxx.o
    0x08020188   0x08020188   0x00000008   Code   RO         3970  * !!!main             c_w.l(__main.o)
    0x08020190   0x08020190   0x00000034   Code   RO         4445    !!!scatter          c_w.l(__scatter.o)
    0x080201c4   0x080201c4   0x0000005a   Code   RO         4443    !!dczerorl2         c_w.l(__dczerorl2.o)
    0x0802021e   0x0802021e   0x00000002   PAD
    0x08020220   0x08020220   0x0000001c   Code   RO         4447    !!handler_zi        c_w.l(__scatter_zi.o)
    0x0802023c   0x0802023c   0x00000000   Code   RO         3943    .ARM.Collect$$_printf_percent$$00000000  c_w.l(_printf_percent.o)
    0x0802023c   0x0802023c   0x00000006   Code   RO         3942    .ARM.Collect$$_printf_percent$$00000003  c_w.l(_printf_f.o)
    0x08020242   0x08020242   0x00000006   Code   RO         3941    .ARM.Collect$$_printf_percent$$00000009  c_w.l(_printf_d.o)
    0x08020248   0x08020248   0x00000006   Code   RO         3940    .ARM.Collect$$_printf_percent$$0000000C  c_w.l(_printf_x.o)
    0x0802024e   0x0802024e   0x00000006   Code   RO         3939    .ARM.Collect$$_printf_percent$$00000014  c_w.l(_printf_s.o)
    0x08020254   0x08020254   0x00000004   Code   RO         4116    .ARM.Collect$$_printf_percent$$00000017  c_w.l(_printf_percent_end.o)
    0x08020258   0x08020258   0x00000002   Code   RO         4337    .ARM.Collect$$libinit$$00000000  c_w.l(libinit.o)
    0x0802025a   0x0802025a   0x00000000   Code   RO         4127    .ARM.Collect$$libinit$$00000002  c_w.l(libinit2.o)
    0x0802025a   0x0802025a   0x00000000   Code   RO         4129    .ARM.Collect$$libinit$$00000004  c_w.l(libinit2.o)
    0x0802025a   0x0802025a   0x00000008   Code   RO         4130    .ARM.Collect$$libinit$$00000005  c_w.l(libinit2.o)
    0x08020262   0x08020262   0x00000000   Code   RO         4132    .ARM.Collect$$libinit$$0000000A  c_w.l(libinit2.o)
    0x08020262   0x08020262   0x00000000   Code   RO         4134    .ARM.Collect$$libinit$$0000000C  c_w.l(libinit2.o)
    0x08020262   0x08020262   0x00000000   Code   RO         4136    .ARM.Collect$$libinit$$0000000E  c_w.l(libinit2.o)
    0x08020262   0x08020262   0x00000006   Code   RO         4137    .ARM.Collect$$libinit$$0000000F  c_w.l(libinit2.o)
    0x08020268   0x08020268   0x00000000   Code   RO         4139    .ARM.Collect$$libinit$$00000011  c_w.l(libinit2.o)
    0x08020268   0x08020268   0x0000000c   Code   RO         4140    .ARM.Collect$$libinit$$00000012  c_w.l(libinit2.o)
    0x08020274   0x08020274   0x00000000   Code   RO         4141    .ARM.Collect$$libinit$$00000013  c_w.l(libinit2.o)
    0x08020274   0x08020274   0x00000000   Code   RO         4143    .ARM.Collect$$libinit$$00000015  c_w.l(libinit2.o)
    0x08020274   0x08020274   0x0000000a   Code   RO         4144    .ARM.Collect$$libinit$$00000016  c_w.l(libinit2.o)
    0x0802027e   0x0802027e   0x00000000   Code   RO         4145    .ARM.Collect$$libinit$$00000017  c_w.l(libinit2.o)
    0x0802027e   0x0802027e   0x00000000   Code   RO         4147    .ARM.Collect$$libinit$$00000019  c_w.l(libinit2.o)
    0x0802027e   0x0802027e   0x00000000   Code   RO         4149    .ARM.Collect$$libinit$$0000001B  c_w.l(libinit2.o)
    0x0802027e   0x0802027e   0x00000000   Code   RO         4151    .ARM.Collect$$libinit$$0000001D  c_w.l(libinit2.o)
    0x0802027e   0x0802027e   0x00000000   Code   RO         4153    .ARM.Collect$$libinit$$0000001F  c_w.l(libinit2.o)
    0x0802027e   0x0802027e   0x00000000   Code   RO         4155    .ARM.Collect$$libinit$$00000021  c_w.l(libinit2.o)
    0x0802027e   0x0802027e   0x00000000   Code   RO         4157    .ARM.Collect$$libinit$$00000023  c_w.l(libinit2.o)
    0x0802027e   0x0802027e   0x00000000   Code   RO         4159    .ARM.Collect$$libinit$$00000025  c_w.l(libinit2.o)
    0x0802027e   0x0802027e   0x00000000   Code   RO         4163    .ARM.Collect$$libinit$$0000002C  c_w.l(libinit2.o)
    0x0802027e   0x0802027e   0x00000000   Code   RO         4165    .ARM.Collect$$libinit$$0000002E  c_w.l(libinit2.o)
    0x0802027e   0x0802027e   0x00000000   Code   RO         4167    .ARM.Collect$$libinit$$00000030  c_w.l(libinit2.o)
    0x0802027e   0x0802027e   0x00000000   Code   RO         4169    .ARM.Collect$$libinit$$00000032  c_w.l(libinit2.o)
    0x0802027e   0x0802027e   0x00000002   Code   RO         4170    .ARM.Collect$$libinit$$00000033  c_w.l(libinit2.o)
    0x08020280   0x08020280   0x00000002   Code   RO         4427    .ARM.Collect$$libshutdown$$00000000  c_w.l(libshutdown.o)
    0x08020282   0x08020282   0x00000000   Code   RO         4355    .ARM.Collect$$libshutdown$$00000002  c_w.l(libshutdown2.o)
    0x08020282   0x08020282   0x00000000   Code   RO         4357    .ARM.Collect$$libshutdown$$00000004  c_w.l(libshutdown2.o)
    0x08020282   0x08020282   0x00000000   Code   RO         4360    .ARM.Collect$$libshutdown$$00000007  c_w.l(libshutdown2.o)
    0x08020282   0x08020282   0x00000000   Code   RO         4363    .ARM.Collect$$libshutdown$$0000000A  c_w.l(libshutdown2.o)
    0x08020282   0x08020282   0x00000000   Code   RO         4365    .ARM.Collect$$libshutdown$$0000000C  c_w.l(libshutdown2.o)
    0x08020282   0x08020282   0x00000000   Code   RO         4368    .ARM.Collect$$libshutdown$$0000000F  c_w.l(libshutdown2.o)
    0x08020282   0x08020282   0x00000002   Code   RO         4369    .ARM.Collect$$libshutdown$$00000010  c_w.l(libshutdown2.o)
    0x08020284   0x08020284   0x00000000   Code   RO         4064    .ARM.Collect$$rtentry$$00000000  c_w.l(__rtentry.o)
    0x08020284   0x08020284   0x00000000   Code   RO         4220    .ARM.Collect$$rtentry$$00000002  c_w.l(__rtentry2.o)
    0x08020284   0x08020284   0x00000006   Code   RO         4232    .ARM.Collect$$rtentry$$00000004  c_w.l(__rtentry4.o)
    0x0802028a   0x0802028a   0x00000000   Code   RO         4222    .ARM.Collect$$rtentry$$00000009  c_w.l(__rtentry2.o)
    0x0802028a   0x0802028a   0x00000004   Code   RO         4223    .ARM.Collect$$rtentry$$0000000A  c_w.l(__rtentry2.o)
    0x0802028e   0x0802028e   0x00000000   Code   RO         4225    .ARM.Collect$$rtentry$$0000000C  c_w.l(__rtentry2.o)
    0x0802028e   0x0802028e   0x00000008   Code   RO         4226    .ARM.Collect$$rtentry$$0000000D  c_w.l(__rtentry2.o)
    0x08020296   0x08020296   0x00000002   Code   RO         4342    .ARM.Collect$$rtexit$$00000000  c_w.l(rtexit.o)
    0x08020298   0x08020298   0x00000000   Code   RO         4391    .ARM.Collect$$rtexit$$00000002  c_w.l(rtexit2.o)
    0x08020298   0x08020298   0x00000004   Code   RO         4392    .ARM.Collect$$rtexit$$00000003  c_w.l(rtexit2.o)
    0x0802029c   0x0802029c   0x00000006   Code   RO         4393    .ARM.Collect$$rtexit$$00000004  c_w.l(rtexit2.o)
    0x080202a2   0x080202a2   0x00000002   PAD
    0x080202a4   0x080202a4   0x00000010   Code   RO         2730    .emb_text           sysdef.o
    0x080202b4   0x080202b4   0x00000000   Code   RO         4238    .emb_text           c_w.l(maybetermalloc1.o)
    0x080202b4   0x080202b4   0x00000a08   Code   RO            3    .text               main.o
    0x08020cbc   0x08020cbc   0x00000458   Code   RO          466    .text               cdv_config.o
    0x08021114   0x08021114   0x00000066   Code   RO          493    .text               cdv_define.o
    0x0802117a   0x0802117a   0x00000002   PAD
    0x0802117c   0x0802117c   0x0000019c   Code   RO          525    .text               offline.o
    0x08021318   0x08021318   0x00000398   Code   RO          552    .text               basic_resource.o
    0x080216b0   0x080216b0   0x00000600   Code   RO          572    .text               fpga_spi.o
    0x08021cb0   0x08021cb0   0x00001690   Code   RO          613    .text               mainuart.o
    0x08023340   0x08023340   0x00000740   Code   RO          650    .text               log.o
    0x08023a80   0x08023a80   0x000008d8   Code   RO          674    .text               cdv_array.o
    0x08024358   0x08024358   0x000006ac   Code   RO          696    .text               newscript.o
    0x08024a04   0x08024a04   0x000018b8   Code   RO          723    .text               modbus.o
    0x080262bc   0x080262bc   0x00000a1e   Code   RO          773    .text               worker.o
    0x08026cda   0x08026cda   0x00000002   PAD
    0x08026cdc   0x08026cdc   0x0000048a   Code   RO          802    .text               cmdparse.o
    0x08027166   0x08027166   0x00000002   PAD
    0x08027168   0x08027168   0x00002754   Code   RO          823    .text               cascade.o
    0x080298bc   0x080298bc   0x000008b4   Code   RO          855    .text               tcp_server.o
    0x0802a170   0x0802a170   0x000002e4   Code   RO          905    .text               udpmain.o
    0x0802a454   0x0802a454   0x00000498   Code   RO          935    .text               centralizedcontrol.o
    0x0802a8ec   0x0802a8ec   0x00000120   Code   RO          972    .text               sysmng.o
    0x0802aa0c   0x0802aa0c   0x000004e8   Code   RO          992    .text               logic.o
    0x0802aef4   0x0802aef4   0x000014da   Code   RO         1047    .text               io.o
    0x0802c3ce   0x0802c3ce   0x00000002   PAD
    0x0802c3d0   0x0802c3d0   0x00000710   Code   RO         1074    .text               var.o
    0x0802cae0   0x0802cae0   0x00000128   Code   RO         1098    .text               msg.o
    0x0802cc08   0x0802cc08   0x000002f8   Code   RO         1121    .text               time.o
    0x0802cf00   0x0802cf00   0x00000f78   Code   RO         1165    .text               adc.o
    0x0802de78   0x0802de78   0x00000680   Code   RO         1192    .text               dac.o
    0x0802e4f8   0x0802e4f8   0x0000018c   Code   RO         1237    .text               dac7512.o
    0x0802e684   0x0802e684   0x0000055a   Code   RO         1298    .text               universalscom.o
    0x0802ebde   0x0802ebde   0x00000002   PAD
    0x0802ebe0   0x0802ebe0   0x00000384   Code   RO         1319    .text               alarm.o
    0x0802ef64   0x0802ef64   0x00000184   Code   RO         1347    .text               led.o
    0x0802f0e8   0x0802f0e8   0x000016e0   Code   RO         1370    .text               varexp.o
    0x080307c8   0x080307c8   0x00000228   Code   RO         1408    .text               memmng.o
    0x080309f0   0x080309f0   0x0000034c   Code   RO         1454    .text               uart1.o
    0x08030d3c   0x08030d3c   0x000002b0   Code   RO         1480    .text               uart2.o
    0x08030fec   0x08030fec   0x0000036c   Code   RO         1506    .text               uart3.o
    0x08031358   0x08031358   0x000002a8   Code   RO         1533    .text               uart4.o
    0x08031600   0x08031600   0x000002b4   Code   RO         1560    .text               uart5.o
    0x080318b4   0x080318b4   0x0000036c   Code   RO         1587    .text               uart6.o
    0x08031c20   0x08031c20   0x000000d4   Code   RO         1614    .text               spix.o
    0x08031cf4   0x08031cf4   0x000000bc   Code   RO         1635    .text               exti.o
    0x08031db0   0x08031db0   0x0000012c   Code   RO         1655    .text               spi2.o
    0x08031edc   0x08031edc   0x00000270   Code   RO         1675    .text               spi3.o
    0x0803214c   0x0803214c   0x00000498   Code   RO         1700    .text               uartx.o
    0x080325e4   0x080325e4   0x0000012c   Code   RO         1724    .text               dmax.o
    0x08032710   0x08032710   0x00000734   Code   RO         1744    .text               lan8720.o
    0x08032e44   0x08032e44   0x00000358   Code   RO         1777    .text               sram.o
    0x0803319c   0x0803319c   0x00000060   Code   RO         1839    .text               stm32f4xx_it.o
    0x080331fc   0x080331fc   0x00000204   Code   RO         1862    .text               system_stm32f4xx.o
    0x08033400   0x08033400   0x00000040   Code   RO         1889    .text               startup_stm32f40_41xxx.o
    0x08033440   0x08033440   0x0000065c   Code   RO         1895    .text               stm32f4xx_rcc.o
    0x08033a9c   0x08033a9c   0x000000e0   Code   RO         1917    .text               misc.o
    0x08033b7c   0x08033b7c   0x00000294   Code   RO         1937    .text               stm32f4xx_gpio.o
    0x08033e10   0x08033e10   0x00000454   Code   RO         1957    .text               stm32f4xx_usart.o
    0x08034264   0x08034264   0x00000480   Code   RO         1977    .text               stm32f4xx_spi.o
    0x080346e4   0x080346e4   0x00000ca2   Code   RO         1997    .text               stm32f4xx_tim.o
    0x08035386   0x08035386   0x00000002   PAD
    0x08035388   0x08035388   0x000003a8   Code   RO         2017    .text               stm32f4xx_dma.o
    0x08035730   0x08035730   0x00000210   Code   RO         2077    .text               stm32f4xx_dac.o
    0x08035940   0x08035940   0x00000464   Code   RO         2097    .text               stm32f4xx_adc.o
    0x08035da4   0x08035da4   0x00000110   Code   RO         2140    .text               stm32f4xx_exti.o
    0x08035eb4   0x08035eb4   0x00000094   Code   RO         2160    .text               stm32f4xx_syscfg.o
    0x08035f48   0x08035f48   0x00001054   Code   RO         2180    .text               stm32f4x7_eth.o
    0x08036f9c   0x08036f9c   0x000005c8   Code   RO         2207    .text               stm32f4xx_fsmc.o
    0x08037564   0x08037564   0x00000084   Code   RO         2250    .text               bsp.o
    0x080375e8   0x080375e8   0x000002a8   Code   RO         2286    .text               cpu_core.o
    0x08037890   0x08037890   0x00000256   Code   RO         2324    .text               lib_ascii.o
    0x08037ae6   0x08037ae6   0x00000002   PAD
    0x08037ae8   0x08037ae8   0x000009c6   Code   RO         2357    .text               lib_mem.o
    0x080384ae   0x080384ae   0x00000002   PAD
    0x080384b0   0x080384b0   0x00000928   Code   RO         2376    .text               lib_str.o
    0x08038dd8   0x08038dd8   0x00000002   Code   RO         2393    .text               os_cfg_app.o
    0x08038dda   0x08038dda   0x00000002   PAD
    0x08038ddc   0x08038ddc   0x00000c30   Code   RO         2416    .text               os_core.o
    0x08039a0c   0x08039a0c   0x000001cc   Code   RO         2449    .text               os_mem.o
    0x08039bd8   0x08039bd8   0x00000228   Code   RO         2461    .text               os_msg.o
    0x08039e00   0x08039e00   0x000006ec   Code   RO         2473    .text               os_mutex.o
    0x0803a4ec   0x0803a4ec   0x0000007c   Code   RO         2491    .text               os_prio.o
    0x0803a568   0x0803a568   0x00000660   Code   RO         2510    .text               os_q.o
    0x0803abc8   0x0803abc8   0x00000674   Code   RO         2522    .text               os_sem.o
    0x0803b23c   0x0803b23c   0x000012b4   Code   RO         2540    .text               os_task.o
    0x0803c4f0   0x0803c4f0   0x00000484   Code   RO         2552    .text               os_tick.o
    0x0803c974   0x0803c974   0x0000045c   Code   RO         2564    .text               os_time.o
    0x0803cdd0   0x0803cdd0   0x00000790   Code   RO         2576    .text               os_tmr.o
    0x0803d560   0x0803d560   0x000001b4   Code   RO         2604    .text               os_cpu_c.o
    0x0803d714   0x0803d714   0x00000034   Code   RO         2628    .text               cpu_a.o
    0x0803d748   0x0803d748   0x00000220   Code   RO         2631    .text               lib_mem_a.o
    0x0803d968   0x0803d968   0x00000210   Code   RO         2639    .text               delay.o
    0x0803db78   0x0803db78   0x000006cc   Code   RO         2681    .text               flash.o
    0x0803e244   0x0803e244   0x00000248   Code   RO         2748    .text               malloc.o
    0x0803e48c   0x0803e48c   0x000002d4   Code   RO         2798    .text               ethernetif.o
    0x0803e760   0x0803e760   0x00000380   Code   RO         2836    .text               sys_arch.o
    0x0803eae0   0x0803eae0   0x0000094c   Code   RO         2870    .text               etharp.o
    0x0803f42c   0x0803f42c   0x000006d0   Code   RO         2916    .text               api_lib.o
    0x0803fafc   0x0803fafc   0x00000f7c   Code   RO         2961    .text               api_msg.o
    0x08040a78   0x08040a78   0x00000190   Code   RO         2998    .text               netbuf.o
    0x08040c08   0x08040c08   0x000002e0   Code   RO         3070    .text               tcpip.o
    0x08040ee8   0x08040ee8   0x0000003e   Code   RO         3108    .text               def.o
    0x08040f26   0x08040f26   0x00000020   Code   RO         3156    .text               init.o
    0x08040f46   0x08040f46   0x00000002   PAD
    0x08040f48   0x08040f48   0x00000380   Code   RO         3205    .text               mem.o
    0x080412c8   0x080412c8   0x000000d4   Code   RO         3229    .text               memp.o
    0x0804139c   0x0804139c   0x000002a0   Code   RO         3267    .text               netif.o
    0x0804163c   0x0804163c   0x00000750   Code   RO         3297    .text               pbuf.o
    0x08041d8c   0x08041d8c   0x000001b0   Code   RO         3320    .text               raw.o
    0x08041f3c   0x08041f3c   0x00000df0   Code   RO         3370    .text               tcp.o
    0x08042d2c   0x08042d2c   0x000012a0   Code   RO         3402    .text               tcp_in.o
    0x08043fcc   0x08043fcc   0x00000c2e   Code   RO         3436    .text               tcp_out.o
    0x08044bfa   0x08044bfa   0x00000002   PAD
    0x08044bfc   0x08044bfc   0x00000228   Code   RO         3456    .text               timers.o
    0x08044e24   0x08044e24   0x00000444   Code   RO         3487    .text               udp.o
    0x08045268   0x08045268   0x000001f0   Code   RO         3527    .text               icmp.o
    0x08045458   0x08045458   0x00000222   Code   RO         3578    .text               inet_chksum.o
    0x0804567a   0x0804567a   0x00000002   PAD
    0x0804567c   0x0804567c   0x000002d8   Code   RO         3598    .text               ip.o
    0x08045954   0x08045954   0x000002b8   Code   RO         3627    .text               ip_addr.o
    0x08045c0c   0x08045c0c   0x00000694   Code   RO         3661    .text               ip_frag.o
    0x080462a0   0x080462a0   0x00000310   Code   RO         3683    .text               lwip_comm.o
    0x080465b0   0x080465b0   0x00000108   Code   RO         3724    .text               fs.o
    0x080466b8   0x080466b8   0x00000d54   Code   RO         3757    .text               httpd.o
    0x0804740c   0x0804740c   0x0000017c   Code   RO         3789    .text               httpd_cgi_ssi.o
    0x08047588   0x08047588   0x00000010   Code   RO         3814    .text               c_w.l(rt_ctype_table.o)
    0x08047598   0x08047598   0x0000005e   Code   RO         3822    .text               c_w.l(h1_alloc.o)
    0x080475f6   0x080475f6   0x0000004e   Code   RO         3824    .text               c_w.l(h1_free.o)
    0x08047644   0x08047644   0x000000b8   Code   RO         3826    .text               c_w.l(h1_realloc.o)
    0x080476fc   0x080476fc   0x000000ee   Code   RO         3884    .text               c_w.l(lludivv7m.o)
    0x080477ea   0x080477ea   0x00000002   PAD
    0x080477ec   0x080477ec   0x00000028   Code   RO         3888    .text               c_w.l(noretval__2sprintf.o)
    0x08047814   0x08047814   0x0000004e   Code   RO         3892    .text               c_w.l(_printf_pad.o)
    0x08047862   0x08047862   0x00000052   Code   RO         3894    .text               c_w.l(_printf_str.o)
    0x080478b4   0x080478b4   0x00000078   Code   RO         3896    .text               c_w.l(_printf_dec.o)
    0x0804792c   0x0804792c   0x00000058   Code   RO         3901    .text               c_w.l(_printf_hex_int.o)
    0x08047984   0x08047984   0x00000188   Code   RO         3936    .text               c_w.l(__printf_flags_ss_wp.o)
    0x08047b0c   0x08047b0c   0x0000001a   Code   RO         3944    .text               c_w.l(atoi.o)
    0x08047b26   0x08047b26   0x00000014   Code   RO         3946    .text               c_w.l(strchr.o)
    0x08047b3a   0x08047b3a   0x00000024   Code   RO         3948    .text               c_w.l(strstr.o)
    0x08047b5e   0x08047b5e   0x00000058   Code   RO         3950    .text               c_w.l(memcmp.o)
    0x08047bb6   0x08047bb6   0x0000003e   Code   RO         3952    .text               c_w.l(strlen.o)
    0x08047bf4   0x08047bf4   0x00000096   Code   RO         3954    .text               c_w.l(strncmp.o)
    0x08047c8a   0x08047c8a   0x0000008a   Code   RO         3956    .text               c_w.l(rt_memcpy_v6.o)
    0x08047d14   0x08047d14   0x00000064   Code   RO         3958    .text               c_w.l(rt_memcpy_w.o)
    0x08047d78   0x08047d78   0x00000010   Code   RO         3960    .text               c_w.l(aeabi_memset.o)
    0x08047d88   0x08047d88   0x00000044   Code   RO         3962    .text               c_w.l(rt_memclr.o)
    0x08047dcc   0x08047dcc   0x0000004e   Code   RO         3964    .text               c_w.l(rt_memclr_w.o)
    0x08047e1a   0x08047e1a   0x00000002   PAD
    0x08047e1c   0x08047e1c   0x00000080   Code   RO         3966    .text               c_w.l(strcmpv7m.o)
    0x08047e9c   0x08047e9c   0x00000006   Code   RO         3968    .text               c_w.l(heapauxi.o)
    0x08047ea2   0x08047ea2   0x00000002   PAD
    0x08047ea4   0x08047ea4   0x00000008   Code   RO         4072    .text               c_w.l(rt_heap_descriptor_intlibspace.o)
    0x08047eac   0x08047eac   0x00000008   Code   RO         4077    .text               c_w.l(rt_locale_intlibspace.o)
    0x08047eb4   0x08047eb4   0x00000008   Code   RO         4082    .text               c_w.l(rt_errno_addr_intlibspace.o)
    0x08047ebc   0x08047ebc   0x00000004   Code   RO         4084    .text               c_w.l(hguard.o)
    0x08047ec0   0x08047ec0   0x0000008a   Code   RO         4086    .text               c_w.l(init_alloc.o)
    0x08047f4a   0x08047f4a   0x0000000e   Code   RO         4090    .text               c_w.l(h1_init.o)
    0x08047f58   0x08047f58   0x00000016   Code   RO         4104    .text               c_w.l(_rserrno.o)
    0x08047f6e   0x08047f6e   0x000000b2   Code   RO         4106    .text               c_w.l(_printf_intcommon.o)
    0x08048020   0x08048020   0x0000041e   Code   RO         4108    .text               c_w.l(_printf_fp_dec.o)
    0x0804843e   0x0804843e   0x00000002   PAD
    0x08048440   0x08048440   0x00000030   Code   RO         4110    .text               c_w.l(_printf_char_common.o)
    0x08048470   0x08048470   0x0000000a   Code   RO         4112    .text               c_w.l(_sputc.o)
    0x0804847a   0x0804847a   0x0000002c   Code   RO         4114    .text               c_w.l(_printf_char.o)
    0x080484a6   0x080484a6   0x00000002   PAD
    0x080484a8   0x080484a8   0x000000a4   Code   RO         4117    .text               c_w.l(strtod.o)
    0x0804854c   0x0804854c   0x00000070   Code   RO         4119    .text               c_w.l(strtol.o)
    0x080485bc   0x080485bc   0x00000008   Code   RO         4216    .text               c_w.l(libspace.o)
    0x080485c4   0x080485c4   0x00000034   Code   RO         4240    .text               c_w.l(h1_extend.o)
    0x080485f8   0x080485f8   0x0000008a   Code   RO         4244    .text               c_w.l(lludiv10.o)
    0x08048682   0x08048682   0x00000012   Code   RO         4246    .text               c_w.l(isspace.o)
    0x08048694   0x08048694   0x00000080   Code   RO         4248    .text               c_w.l(_printf_fp_infnan.o)
    0x08048714   0x08048714   0x00000040   Code   RO         4252    .text               c_w.l(_sgetc.o)
    0x08048754   0x08048754   0x0000009e   Code   RO         4254    .text               c_w.l(_strtoul.o)
    0x080487f2   0x080487f2   0x00000002   PAD
    0x080487f4   0x080487f4   0x000000e4   Code   RO         4256    .text               c_w.l(bigflt0.o)
    0x080488d8   0x080488d8   0x0000000e   Code   RO         4284    .text               c_w.l(defsig_rtmem_outer.o)
    0x080488e6   0x080488e6   0x00000002   Code   RO         4305    .text               c_w.l(use_no_semi.o)
    0x080488e8   0x080488e8   0x00000000   Code   RO         4307    .text               c_w.l(indicate_semi.o)
    0x080488e8   0x080488e8   0x0000004a   Code   RO         4308    .text               c_w.l(sys_stackheap_outer.o)
    0x08048932   0x08048932   0x0000001c   Code   RO         4314    .text               c_w.l(_chval.o)
    0x0804894e   0x0804894e   0x00000002   PAD
    0x08048950   0x08048950   0x000004f8   Code   RO         4316    .text               c_w.l(scanf_fp.o)
    0x08048e48   0x08048e48   0x00000012   Code   RO         4318    .text               c_w.l(exit.o)
    0x08048e5a   0x08048e5a   0x0000000a   Code   RO         4320    .text               c_w.l(defsig_exit.o)
    0x08048e64   0x08048e64   0x00000050   Code   RO         4326    .text               c_w.l(defsig_rtmem_inner.o)
    0x08048eb4   0x08048eb4   0x0000000c   Code   RO         4340    .text               c_w.l(sys_exit.o)
    0x08048ec0   0x08048ec0   0x00000032   Code   RO         4350    .text               c_w.l(defsig_general.o)
    0x08048ef2   0x08048ef2   0x0000000e   Code   RO         4388    .text               c_w.l(sys_wrch.o)
    0x08048f00   0x08048f00   0x00000320   Code   RO         4397    .text               c_w.l(scanf_hexfp.o)
    0x08049220   0x08049220   0x00000134   Code   RO         4399    .text               c_w.l(scanf_infnan.o)
    0x08049354   0x08049354   0x00000026   Code   RO         4409    .text               c_w.l(llshl.o)
    0x0804937a   0x0804937a   0x0000003e   Code   RO         4259    CL$$btod_d2e        c_w.l(btod.o)
    0x080493b8   0x080493b8   0x00000046   Code   RO         4261    CL$$btod_d2e_denorm_low  c_w.l(btod.o)
    0x080493fe   0x080493fe   0x00000060   Code   RO         4260    CL$$btod_d2e_norm_op1  c_w.l(btod.o)
    0x0804945e   0x0804945e   0x00000338   Code   RO         4269    CL$$btod_div_common  c_w.l(btod.o)
    0x08049796   0x08049796   0x00000002   PAD
    0x08049798   0x08049798   0x00000084   Code   RO         4267    CL$$btod_e2d        c_w.l(btod.o)
    0x0804981c   0x0804981c   0x000000dc   Code   RO         4266    CL$$btod_e2e        c_w.l(btod.o)
    0x080498f8   0x080498f8   0x0000002a   Code   RO         4263    CL$$btod_ediv       c_w.l(btod.o)
    0x08049922   0x08049922   0x0000002a   Code   RO         4265    CL$$btod_edivd      c_w.l(btod.o)
    0x0804994c   0x0804994c   0x0000002a   Code   RO         4262    CL$$btod_emul       c_w.l(btod.o)
    0x08049976   0x08049976   0x0000002a   Code   RO         4264    CL$$btod_emuld      c_w.l(btod.o)
    0x080499a0   0x080499a0   0x00000244   Code   RO         4268    CL$$btod_mult_common  c_w.l(btod.o)
    0x08049be4   0x08049be4   0x00000098   Code   RO         2634    CODE                os_cpu_a.o
    0x08049c7c   0x08049c7c   0x00000028   Code   RO         4301    i.__ARM_fpclassify  m_ws.l(fpclassify.o)
    0x08049ca4   0x08049ca4   0x0000000e   Code   RO         4193    i.__mathlib_dbl_overflow  m_ws.l(dunder.o)
    0x08049cb2   0x08049cb2   0x00000002   PAD
    0x08049cb4   0x08049cb4   0x00000010   Code   RO         4195    i.__mathlib_dbl_underflow  m_ws.l(dunder.o)
    0x08049cc4   0x08049cc4   0x00000010   Code   RO         4382    i.__mathlib_narrow  m_ws.l(narrow.o)
    0x08049cd4   0x08049cd4   0x000000bc   Code   RO         4383    i.__mathlib_tofloat  m_ws.l(narrow.o)
    0x08049d90   0x08049d90   0x00000016   Code   RO         4429    i.__support_ldexp   m_ws.l(ldexp.o)
    0x08049da6   0x08049da6   0x0000000e   Code   RO         3929    i._is_digit         c_w.l(__printf_wp.o)
    0x08049db4   0x08049db4   0x0000002a   Code   RO         4043    i.atof              m_ws.l(atof.o)
    0x08049dde   0x08049dde   0x00000002   PAD
    0x08049de0   0x08049de0   0x00000058   Code   RO         4406    i.frexp             m_ws.l(frexp.o)
    0x08049e38   0x08049e38   0x00000074   Code   RO         4430    i.ldexp             m_ws.l(ldexp.o)
    0x08049eac   0x08049eac   0x0000004c   Code   RO         4055    i.sqrt              m_ws.l(sqrt.o)
    0x08049ef8   0x08049ef8   0x0000002c   Code   RO         4122    locale$$code        c_w.l(lc_ctype_c.o)
    0x08049f24   0x08049f24   0x0000002c   Code   RO         4282    locale$$code        c_w.l(lc_numeric_c.o)
    0x08049f50   0x08049f50   0x00000062   Code   RO         3972    x$fpl$d2f           fz_ws.l(d2f.o)
    0x08049fb2   0x08049fb2   0x00000002   PAD
    0x08049fb4   0x08049fb4   0x00000150   Code   RO         3974    x$fpl$dadd          fz_ws.l(daddsub_clz.o)
    0x0804a104   0x0804a104   0x00000010   Code   RO         4338    x$fpl$dcheck1       fz_ws.l(dcheck1.o)
    0x0804a114   0x0804a114   0x00000018   Code   RO         4171    x$fpl$dcmpinf       fz_ws.l(dcmpi.o)
    0x0804a12c   0x0804a12c   0x000002b0   Code   RO         3981    x$fpl$ddiv          fz_ws.l(ddiv.o)
    0x0804a3dc   0x0804a3dc   0x00000078   Code   RO         3984    x$fpl$deqf          fz_ws.l(deqf.o)
    0x0804a454   0x0804a454   0x0000005e   Code   RO         3986    x$fpl$dfix          fz_ws.l(dfix.o)
    0x0804a4b2   0x0804a4b2   0x00000002   PAD
    0x0804a4b4   0x0804a4b4   0x0000005a   Code   RO         3990    x$fpl$dfixu         fz_ws.l(dfixu.o)
    0x0804a50e   0x0804a50e   0x0000002e   Code   RO         3995    x$fpl$dflt          fz_ws.l(dflt_clz.o)
    0x0804a53c   0x0804a53c   0x00000026   Code   RO         3994    x$fpl$dfltu         fz_ws.l(dflt_clz.o)
    0x0804a562   0x0804a562   0x00000002   PAD
    0x0804a564   0x0804a564   0x00000078   Code   RO         4000    x$fpl$dleqf         fz_ws.l(dleqf.o)
    0x0804a5dc   0x0804a5dc   0x00000154   Code   RO         4002    x$fpl$dmul          fz_ws.l(dmul.o)
    0x0804a730   0x0804a730   0x0000009c   Code   RO         4173    x$fpl$dnaninf       fz_ws.l(dnaninf.o)
    0x0804a7cc   0x0804a7cc   0x0000000c   Code   RO         4175    x$fpl$dretinf       fz_ws.l(dretinf.o)
    0x0804a7d8   0x0804a7d8   0x0000006c   Code   RO         4004    x$fpl$drleqf        fz_ws.l(drleqf.o)
    0x0804a844   0x0804a844   0x00000016   Code   RO         3975    x$fpl$drsb          fz_ws.l(daddsub_clz.o)
    0x0804a85a   0x0804a85a   0x00000002   PAD
    0x0804a85c   0x0804a85c   0x00000198   Code   RO         4177    x$fpl$dsqrt         fz_ws.l(dsqrt_umaal.o)
    0x0804a9f4   0x0804a9f4   0x000001d4   Code   RO         3976    x$fpl$dsub          fz_ws.l(daddsub_clz.o)
    0x0804abc8   0x0804abc8   0x00000056   Code   RO         4006    x$fpl$f2d           fz_ws.l(f2d.o)
    0x0804ac1e   0x0804ac1e   0x00000002   PAD
    0x0804ac20   0x0804ac20   0x000000c4   Code   RO         4008    x$fpl$fadd          fz_ws.l(faddsub_clz.o)
    0x0804ace4   0x0804ace4   0x00000018   Code   RO         4179    x$fpl$fcmpinf       fz_ws.l(fcmpi.o)
    0x0804acfc   0x0804acfc   0x00000184   Code   RO         4015    x$fpl$fdiv          fz_ws.l(fdiv.o)
    0x0804ae80   0x0804ae80   0x00000068   Code   RO         4018    x$fpl$feqf          fz_ws.l(feqf.o)
    0x0804aee8   0x0804aee8   0x00000036   Code   RO         4020    x$fpl$ffix          fz_ws.l(ffix.o)
    0x0804af1e   0x0804af1e   0x00000002   PAD
    0x0804af20   0x0804af20   0x0000003e   Code   RO         4024    x$fpl$ffixu         fz_ws.l(ffixu.o)
    0x0804af5e   0x0804af5e   0x00000002   PAD
    0x0804af60   0x0804af60   0x00000030   Code   RO         4029    x$fpl$fflt          fz_ws.l(fflt_clz.o)
    0x0804af90   0x0804af90   0x00000026   Code   RO         4028    x$fpl$ffltu         fz_ws.l(fflt_clz.o)
    0x0804afb6   0x0804afb6   0x00000002   PAD
    0x0804afb8   0x0804afb8   0x00000068   Code   RO         4034    x$fpl$fleqf         fz_ws.l(fleqf.o)
    0x0804b020   0x0804b020   0x00000102   Code   RO         4036    x$fpl$fmul          fz_ws.l(fmul.o)
    0x0804b122   0x0804b122   0x0000008c   Code   RO         4181    x$fpl$fnaninf       fz_ws.l(fnaninf.o)
    0x0804b1ae   0x0804b1ae   0x0000000a   Code   RO         4183    x$fpl$fretinf       fz_ws.l(fretinf.o)
    0x0804b1b8   0x0804b1b8   0x00000062   Code   RO         4038    x$fpl$frleqf        fz_ws.l(frleqf.o)
    0x0804b21a   0x0804b21a   0x00000014   Code   RO         4009    x$fpl$frsb          fz_ws.l(faddsub_clz.o)
    0x0804b22e   0x0804b22e   0x00000002   PAD
    0x0804b230   0x0804b230   0x000000ea   Code   RO         4010    x$fpl$fsub          fz_ws.l(faddsub_clz.o)
    0x0804b31a   0x0804b31a   0x00000006   Code   RO         4295    x$fpl$ieeestatus    fz_ws.l(istatus.o)
    0x0804b320   0x0804b320   0x00000004   Code   RO         4040    x$fpl$printf1       fz_ws.l(printf1.o)
    0x0804b324   0x0804b324   0x00000064   Code   RO         4374    x$fpl$retnan        fz_ws.l(retnan.o)
    0x0804b388   0x0804b388   0x0000005c   Code   RO         4297    x$fpl$scalbn        fz_ws.l(scalbn.o)
    0x0804b3e4   0x0804b3e4   0x00000004   Code   RO         4299    x$fpl$scanf1        fz_ws.l(scanf1.o)
    0x0804b3e8   0x0804b3e8   0x00000008   Code   RO         4376    x$fpl$scanf2        fz_ws.l(scanf2.o)
    0x0804b3f0   0x0804b3f0   0x00000030   Code   RO         4403    x$fpl$trapveneer    fz_ws.l(trapv.o)
    0x0804b420   0x0804b420   0x00000000   Code   RO         4185    x$fpl$usenofp       fz_ws.l(usenofp.o)
    0x0804b420   0x0804b420   0x0000001c   Data   RO          467    .constdata          cdv_config.o
    0x0804b43c   0x0804b43c   0x00000011   Data   RO          526    .constdata          offline.o
    0x0804b44d   0x0804b44d   0x00000010   Data   RO          573    .constdata          fpga_spi.o
    0x0804b45d   0x0804b45d   0x0000022b   Data   RO          615    .constdata          mainuart.o
    0x0804b688   0x0804b688   0x00000056   Data   RO          652    .constdata          log.o
    0x0804b6de   0x0804b6de   0x00000081   Data   RO          675    .constdata          cdv_array.o
    0x0804b75f   0x0804b75f   0x0000000e   Data   RO          698    .constdata          newscript.o
    0x0804b76d   0x0804b76d   0x0000012f   Data   RO          725    .constdata          modbus.o
    0x0804b89c   0x0804b89c   0x0000004a   Data   RO          775    .constdata          worker.o
    0x0804b8e6   0x0804b8e6   0x0000000a   Data   RO          803    .constdata          cmdparse.o
    0x0804b8f0   0x0804b8f0   0x000001e3   Data   RO          825    .constdata          cascade.o
    0x0804bad3   0x0804bad3   0x00000028   Data   RO          857    .constdata          tcp_server.o
    0x0804bafb   0x0804bafb   0x00000007   Data   RO          993    .constdata          logic.o
    0x0804bb02   0x0804bb02   0x000000cc   Data   RO         1075    .constdata          var.o
    0x0804bbce   0x0804bbce   0x00000015   Data   RO         1299    .constdata          universalscom.o
    0x0804bbe3   0x0804bbe3   0x00000001   PAD
    0x0804bbe4   0x0804bbe4   0x00000010   Data   RO         1321    .constdata          alarm.o
    0x0804bbf4   0x0804bbf4   0x00000024   Data   RO         1371    .constdata          varexp.o
    0x0804bc18   0x0804bc18   0x0000000e   Data   RO         1411    .constdata          memmng.o
    0x0804bc26   0x0804bc26   0x0000000e   Data   RO         1615    .constdata          spix.o
    0x0804bc34   0x0804bc34   0x0000000a   Data   RO         1677    .constdata          spi3.o
    0x0804bc3e   0x0804bc3e   0x0000003a   Data   RO         1701    .constdata          uartx.o
    0x0804bc78   0x0804bc78   0x00000022   Data   RO         1746    .constdata          lan8720.o
    0x0804bc9a   0x0804bc9a   0x00000002   PAD
    0x0804bc9c   0x0804bc9c   0x0000001c   Data   RO         2208    .constdata          stm32f4xx_fsmc.o
    0x0804bcb8   0x0804bcb8   0x00000100   Data   RO         2288    .constdata          cpu_core.o
    0x0804bdb8   0x0804bdb8   0x00000094   Data   RO         2377    .constdata          lib_str.o
    0x0804be4c   0x0804be4c   0x000000a4   Data   RO         2395    .constdata          os_cfg_app.o
    0x0804bef0   0x0804bef0   0x00000024   Data   RO         2752    .constdata          malloc.o
    0x0804bf14   0x0804bf14   0x00000004   Data   RO         2838    .constdata          sys_arch.o
    0x0804bf18   0x0804bf18   0x0000000c   Data   RO         2872    .constdata          etharp.o
    0x0804bf24   0x0804bf24   0x00000038   Data   RO         3231    .constdata          memp.o
    0x0804bf5c   0x0804bf5c   0x00000050   Data   RO         3371    .constdata          tcp.o
    0x0804bfac   0x0804bfac   0x00000008   Data   RO         3629    .constdata          ip_addr.o
    0x0804bfb4   0x0804bfb4   0x0000000a   Data   RO         3685    .constdata          lwip_comm.o
    0x0804bfbe   0x0804bfbe   0x00000002   PAD
    0x0804bfc0   0x0804bfc0   0x0000cc70   Data   RO         3726    .constdata          fs.o
    0x08058c30   0x08058c30   0x00000030   Data   RO         3759    .constdata          httpd.o
    0x08058c60   0x08058c60   0x00000008   Data   RO         3790    .constdata          httpd_cgi_ssi.o
    0x08058c68   0x08058c68   0x00000028   Data   RO         3902    .constdata          c_w.l(_printf_hex_int.o)
    0x08058c90   0x08058c90   0x00000011   Data   RO         3937    .constdata          c_w.l(__printf_flags_ss_wp.o)
    0x08058ca1   0x08058ca1   0x00000003   PAD
    0x08058ca4   0x08058ca4   0x00000094   Data   RO         4257    .constdata          c_w.l(bigflt0.o)
    0x08058d38   0x08058d38   0x0000009e   Data   RO          495    .conststring        cdv_define.o
    0x08058dd6   0x08058dd6   0x00000002   PAD
    0x08058dd8   0x08058dd8   0x00000054   Data   RO          776    .conststring        worker.o
    0x08058e2c   0x08058e2c   0x00000075   Data   RO         3372    .conststring        tcp.o
    0x08058ea1   0x08058ea1   0x00000003   PAD
    0x08058ea4   0x08058ea4   0x0000006a   Data   RO         3760    .conststring        httpd.o
    0x08058f0e   0x08058f0e   0x00000002   PAD
    0x08058f10   0x08058f10   0x0000000e   Data   RO         3791    .conststring        httpd_cgi_ssi.o
    0x08058f1e   0x08058f1e   0x00000002   PAD
    0x08058f20   0x08058f20   0x00000020   Data   RO         4441    Region$$Table       anon$$obj.o
    0x08058f40   0x08058f40   0x00000008   Data   RO         4370    c$$dinf             fz_ws.l(fpconst.o)
    0x08058f48   0x08058f48   0x00000008   Data   RO         4373    c$$dmax             fz_ws.l(fpconst.o)
    0x08058f50   0x08058f50   0x00000110   Data   RO         4121    locale$$data        c_w.l(lc_ctype_c.o)
    0x08059060   0x08059060   0x0000001c   Data   RO         4281    locale$$data        c_w.l(lc_numeric_c.o)


    Execution Region RW_IRAM1 (Exec base: 0x20000000, Load base: 0x0805907c, Size: 0x0001fb30, Max: 0x00020000, ABSOLUTE, COMPRESSED[0x00000200])

    Exec Addr    Load Addr    Size         Type   Attr      Idx    E Section Name        Object

    0x20000000   COMPRESSED   0x00000008   Data   RW            5    .data               main.o
    0x20000008   COMPRESSED   0x00000004   Data   RW          468    .data               cdv_config.o
    0x2000000c   COMPRESSED   0x00000064   Data   RW          496    .data               cdv_define.o
    0x20000070   COMPRESSED   0x00000008   Data   RW          527    .data               offline.o
    0x20000078   COMPRESSED   0x00000007   Data   RW          574    .data               fpga_spi.o
    0x2000007f   COMPRESSED   0x00000001   PAD
    0x20000080   COMPRESSED   0x000001e1   Data   RW          616    .data               mainuart.o
    0x20000261   COMPRESSED   0x00000003   PAD
    0x20000264   COMPRESSED   0x00000004   Data   RW          676    .data               cdv_array.o
    0x20000268   COMPRESSED   0x00000024   Data   RW          777    .data               worker.o
    0x2000028c   COMPRESSED   0x00000035   Data   RW          826    .data               cascade.o
    0x200002c1   COMPRESSED   0x00000003   PAD
    0x200002c4   COMPRESSED   0x0000001c   Data   RW          858    .data               tcp_server.o
    0x200002e0   COMPRESSED   0x00000001   Data   RW          907    .data               udpmain.o
    0x200002e1   COMPRESSED   0x00000003   PAD
    0x200002e4   COMPRESSED   0x0000000c   Data   RW         1049    .data               io.o
    0x200002f0   COMPRESSED   0x00000004   Data   RW         1076    .data               var.o
    0x200002f4   COMPRESSED   0x00000004   Data   RW         1099    .data               msg.o
    0x200002f8   COMPRESSED   0x00000020   Data   RW         1122    .data               time.o
    0x20000318   COMPRESSED   0x00000004   Data   RW         1167    .data               adc.o
    0x2000031c   COMPRESSED   0x00000024   Data   RW         1194    .data               dac.o
    0x20000340   COMPRESSED   0x00000005   Data   RW         1322    .data               alarm.o
    0x20000345   COMPRESSED   0x00000003   PAD
    0x20000348   COMPRESSED   0x0000000e   Data   RW         1412    .data               memmng.o
    0x20000356   COMPRESSED   0x00000002   PAD
    0x20000358   COMPRESSED   0x00000006   Data   RW         1455    .data               uart1.o
    0x2000035e   COMPRESSED   0x00000002   PAD
    0x20000360   COMPRESSED   0x00000006   Data   RW         1481    .data               uart2.o
    0x20000366   COMPRESSED   0x00000002   PAD
    0x20000368   COMPRESSED   0x0000000a   Data   RW         1508    .data               uart3.o
    0x20000372   COMPRESSED   0x00000002   PAD
    0x20000374   COMPRESSED   0x00000010   Data   RW         1535    .data               uart4.o
    0x20000384   COMPRESSED   0x0000000a   Data   RW         1562    .data               uart5.o
    0x2000038e   COMPRESSED   0x00000002   PAD
    0x20000390   COMPRESSED   0x00000018   Data   RW         1589    .data               uart6.o
    0x200003a8   COMPRESSED   0x00000007   Data   RW         1678    .data               spi3.o
    0x200003af   COMPRESSED   0x00000001   PAD
    0x200003b0   COMPRESSED   0x00000048   Data   RW         1702    .data               uartx.o
    0x200003f8   COMPRESSED   0x0000001c   Data   RW         1747    .data               lan8720.o
    0x20000414   COMPRESSED   0x00000014   Data   RW         1863    .data               system_stm32f4xx.o
    0x20000428   COMPRESSED   0x00000010   Data   RW         1896    .data               stm32f4xx_rcc.o
    0x20000438   COMPRESSED   0x00000010   Data   RW         2182    .data               stm32f4x7_eth.o
    0x20000448   COMPRESSED   0x00000004   Data   RW         2289    .data               cpu_core.o
    0x2000044c   COMPRESSED   0x00000004   Data   RW         2359    .data               lib_mem.o
    0x20000450   COMPRESSED   0x00000008   Data   RW         2492    .data               os_prio.o
    0x20000458   COMPRESSED   0x00000048   Data   RW         2589    .data               os_var.o
    0x200004a0   COMPRESSED   0x00000004   Data   RW         2605    .data               os_cpu_c.o
    0x200004a4   COMPRESSED   0x00000018   Data   RW         2641    .data               delay.o
    0x200004bc   COMPRESSED   0x00000005   Data   RW         2682    .data               flash.o
    0x200004c1   COMPRESSED   0x00000003   PAD
    0x200004c4   COMPRESSED   0x00000024   Data   RW         2753    .data               malloc.o
    0x200004e8   COMPRESSED   0x00000001   Data   RW         2873    .data               etharp.o
    0x200004e9   COMPRESSED   0x00000003   PAD
    0x200004ec   COMPRESSED   0x00000008   Data   RW         3072    .data               tcpip.o
    0x200004f4   COMPRESSED   0x0000000c   Data   RW         3207    .data               mem.o
    0x20000500   COMPRESSED   0x00000009   Data   RW         3268    .data               netif.o
    0x20000509   COMPRESSED   0x00000003   PAD
    0x2000050c   COMPRESSED   0x00000004   Data   RW         3321    .data               raw.o
    0x20000510   COMPRESSED   0x00000024   Data   RW         3373    .data               tcp.o
    0x20000534   COMPRESSED   0x00000020   Data   RW         3404    .data               tcp_in.o
    0x20000554   COMPRESSED   0x00000008   Data   RW         3457    .data               timers.o
    0x2000055c   COMPRESSED   0x00000008   Data   RW         3488    .data               udp.o
    0x20000564   COMPRESSED   0x00000012   Data   RW         3599    .data               ip.o
    0x20000576   COMPRESSED   0x00000002   PAD
    0x20000578   COMPRESSED   0x00000006   Data   RW         3662    .data               ip_frag.o
    0x2000057e   COMPRESSED   0x00000002   PAD
    0x20000580   COMPRESSED   0x0000000c   Data   RW         3686    .data               lwip_comm.o
    0x2000058c   COMPRESSED   0x00000024   Data   RW         3761    .data               httpd.o
    0x200005b0   COMPRESSED   0x00000018   Data   RW         3792    .data               httpd_cgi_ssi.o
    0x200005c8        -       0x00001200   Zero   RW            4    .bss                main.o
    0x200017c8        -       0x00007960   Zero   RW          494    .bss                cdv_define.o
    0x20009128        -       0x000003fc   Zero   RW          614    .bss                mainuart.o
    0x20009524        -       0x00000068   Zero   RW          651    .bss                log.o
    0x2000958c        -       0x0000002c   Zero   RW          697    .bss                newscript.o
    0x200095b8        -       0x000006c0   Zero   RW          724    .bss                modbus.o
    0x20009c78        -       0x00000250   Zero   RW          774    .bss                worker.o
    0x20009ec8        -       0x0000168c   Zero   RW          824    .bss                cascade.o
    0x2000b554        -       0x00000a08   Zero   RW          856    .bss                tcp_server.o
    0x2000bf5c        -       0x000002ac   Zero   RW          906    .bss                udpmain.o
    0x2000c208        -       0x000001a4   Zero   RW         1048    .bss                io.o
    0x2000c3ac        -       0x000006d0   Zero   RW         1166    .bss                adc.o
    0x2000ca7c        -       0x000000b0   Zero   RW         1193    .bss                dac.o
    0x2000cb2c        -       0x00000190   Zero   RW         1320    .bss                alarm.o
    0x2000ccbc        -       0x000000ff   Zero   RW         1507    .bss                uart3.o
    0x2000cdbb        -       0x00000020   Zero   RW         1534    .bss                uart4.o
    0x2000cddb        -       0x00000010   Zero   RW         1561    .bss                uart5.o
    0x2000cdeb        -       0x00000100   Zero   RW         1676    .bss                spi3.o
    0x2000ceeb   COMPRESSED   0x00000001   PAD
    0x2000ceec        -       0x000000bc   Zero   RW         1745    .bss                lan8720.o
    0x2000cfa8        -       0x0000000c   Zero   RW         2181    .bss                stm32f4x7_eth.o
    0x2000cfb4        -       0x00000010   Zero   RW         2287    .bss                cpu_core.o
    0x2000cfc4        -       0x00000448   Zero   RW         2358    .bss                lib_mem.o
    0x2000d40c        -       0x00000f50   Zero   RW         2394    .bss                os_cfg_app.o
    0x2000e35c        -       0x00000510   Zero   RW         2588    .bss                os_var.o
    0x2000e86c        -       0x000000a0   Zero   RW         2640    .bss                delay.o
    0x2000e90c        -       0x000000ac   Zero   RW         2837    .bss                sys_arch.o
    0x2000e9b8        -       0x000000c8   Zero   RW         2871    .bss                etharp.o
    0x2000ea80        -       0x00000024   Zero   RW         3071    .bss                tcpip.o
    0x2000eaa4        -       0x000012f0   Zero   RW         3206    .bss                mem.o
    0x2000fd94        -       0x00002733   Zero   RW         3230    .bss                memp.o
    0x200124c7   COMPRESSED   0x00000001   PAD
    0x200124c8        -       0x00000010   Zero   RW         3403    .bss                tcp_in.o
    0x200124d8        -       0x00000010   Zero   RW         3628    .bss                ip_addr.o
    0x200124e8        -       0x000000f8   Zero   RW         3684    .bss                lwip_comm.o
    0x200125e0        -       0x000000f0   Zero   RW         3725    .bss                fs.o
    0x200126d0        -       0x00000400   Zero   RW         3758    .bss                httpd.o
    0x20012ad0        -       0x00000060   Zero   RW         4217    .bss                c_w.l(libspace.o)
    0x20012b30        -       0x0000c000   Zero   RW         1887    HEAP                startup_stm32f40_41xxx.o
    0x2001eb30        -       0x00001000   Zero   RW         1886    STACK               startup_stm32f40_41xxx.o



  Load Region LR$$.ARM.__AT_0x10000000 (Base: 0x10000000, Size: 0x00000000, Max: 0x00008000, ABSOLUTE)

    Execution Region ER$$.ARM.__AT_0x10000000 (Exec base: 0x10000000, Load base: 0x10000000, Size: 0x00008000, Max: 0x00008000, ABSOLUTE, UNINIT)

    Exec Addr    Load Addr    Size         Type   Attr      Idx    E Section Name        Object

    0x10000000        -       0x00008000   Zero   RW         2749    .ARM.__AT_0x10000000  malloc.o



  Load Region LR$$.ARM.__AT_0x10008000 (Base: 0x10008000, Size: 0x00000000, Max: 0x00000800, ABSOLUTE)

    Execution Region ER$$.ARM.__AT_0x10008000 (Exec base: 0x10008000, Load base: 0x10008000, Size: 0x00000800, Max: 0x00000800, ABSOLUTE, UNINIT)

    Exec Addr    Load Addr    Size         Type   Attr      Idx    E Section Name        Object

    0x10008000        -       0x00000800   Zero   RW         2750    .ARM.__AT_0x10008000  malloc.o



  Load Region LR$$.ARM.__AT_0x10009000 (Base: 0x10009000, Size: 0x00000000, Max: 0x00007000, ABSOLUTE)

    Execution Region ER$$.ARM.__AT_0x10009000 (Exec base: 0x10009000, Load base: 0x10009000, Size: 0x00007000, Max: 0x00007000, ABSOLUTE, UNINIT)

    Exec Addr    Load Addr    Size         Type   Attr      Idx    E Section Name        Object

    0x10009000        -       0x00007000   Zero   RW         2751    .ARM.__AT_0x10009000  malloc.o



  Load Region LR$$.ARM.__AT_0x68000000 (Base: 0x68000000, Size: 0x00000000, Max: 0x000c0000, ABSOLUTE)

    Execution Region ER$$.ARM.__AT_0x68000000 (Exec base: 0x68000000, Load base: 0x68000000, Size: 0x000c0000, Max: 0x000c0000, ABSOLUTE, UNINIT)

    Exec Addr    Load Addr    Size         Type   Attr      Idx    E Section Name        Object

    0x68000000        -       0x000c0000   Zero   RW         1409    .ARM.__AT_0x68000000  memmng.o



  Load Region LR$$.ARM.__AT_0x680C0000 (Base: 0x680c0000, Size: 0x00000000, Max: 0x00030000, ABSOLUTE)

    Execution Region ER$$.ARM.__AT_0x680C0000 (Exec base: 0x680c0000, Load base: 0x680c0000, Size: 0x00030000, Max: 0x00030000, ABSOLUTE, UNINIT)

    Exec Addr    Load Addr    Size         Type   Attr      Idx    E Section Name        Object

    0x680c0000        -       0x00030000   Zero   RW         1410    .ARM.__AT_0x680C0000  memmng.o


==============================================================================

Image component sizes


      Code (inc. data)   RO Data    RW Data    ZI Data      Debug   Object Name

      3960        148          0          4       1744      10698   adc.o
       900         20         16          5        400       3726   alarm.o
      1744         52          0          0          0      17597   api_lib.o
      3964         40          0          0          0      10343   api_msg.o
       920         18          0          0          0       4117   basic_resource.o
       132         14          0          0          0       1139   bsp.o
     10068        456        483         53       5772      36181   cascade.o
      2264         72        129          4          0       9435   cdv_array.o
      1112        148         28          4          0       5027   cdv_config.o
       102          0        158        100      31072       4408   cdv_define.o
      1176         54          0          0          0       4027   centralizedcontrol.o
      1162         38         10          0          0       3074   cmdparse.o
        52          0          0          0          0        344   cpu_a.o
       680         14        256          4         16      14540   cpu_core.o
      1664         72          0         36        176       6635   dac.o
       396          8          0          0          0       1298   dac7512.o
        62          0          0          0          0       1098   def.o
       528         38          0         24        160       4095   delay.o
       300          6          0          0          0       1742   dmax.o
      2380         22         12          1        200      10411   etharp.o
       724         44          0          0          0       7414   ethernetif.o
       188         10          0          0          0        734   exti.o
      1740         60          0          5          0       5874   flash.o
      1536         80         16          7          0       6382   fpga_spi.o
       264          8      52336          0        240       5174   fs.o
      3412        180        154         36       1024      14986   httpd.o
       380         60         22         24          0       2641   httpd_cgi_ssi.o
       496          8          0          0          0       2502   icmp.o
       546          0          0          0          0       3013   inet_chksum.o
        32          0          0          0          0       9737   init.o
      5338        164          0         12        420      12542   io.o
       728         28          0         18          0       6015   ip.o
       696         12          8          0         16      10395   ip_addr.o
      1684         18          0          6          0       6584   ip_frag.o
      1844        130         34         28        188       5283   lan8720.o
       388         12          0          0          0       1422   led.o
       598          0          0          0          0       3888   lib_ascii.o
      2502         32          0          4       1096      22284   lib_mem.o
       544          0          0          0          0        492   lib_mem_a.o
      2344          4        148          0          0      13810   lib_str.o
      1856         78         86          0        104       4865   log.o
      1256         30          7          0          0       6181   logic.o
       784         78         10         12        248       3695   lwip_comm.o
      2568        590          0          8       4608     433782   main.o
      5776        484        555        481       1020      44476   mainuart.o
       584         20         36         36      63488       5484   malloc.o
       896         22          0         12       4848       3906   mem.o
       552         66         14         14     983040       3639   memmng.o
       212         18         56          0      10035       3422   memp.o
       224         20          0          0          0       1845   misc.o
      6328        180        303          0       1728      21885   modbus.o
       296          8          0          4          0       1890   msg.o
       400          0          0          0          0       7633   netbuf.o
       672         22          0          9          0       6385   netif.o
      1708         36         14          0         44       6767   newscript.o
       412         40         17          8          0       3527   offline.o
         2          0        164          0       3920      17812   os_cfg_app.o
      3120        192          0          0          0      11141   os_core.o
       152         32          0          0          0        412   os_cpu_a.o
       436         34          0          4          0       3641   os_cpu_c.o
       460         12          0          0          0       2559   os_mem.o
       552         14          0          0          0       2694   os_msg.o
      1772         70          0          0          0       4773   os_mutex.o
       124          4          0          8          0       1760   os_prio.o
      1632         42          0          0          0       5707   os_q.o
      1652         46          0          0          0       5743   os_sem.o
      4788        174          0          0          0      12871   os_task.o
      1156         74          0          0          0       3273   os_tick.o
      1116         54          0          0          0       3225   os_time.o
      1936        126          0          0          0       6265   os_tmr.o
         0          0          0         72       1296      16131   os_var.o
      1872          0          0          0          0       9077   pbuf.o
       432         14          0          4          0       3313   raw.o
       300         16          0          0          0        721   spi2.o
       624         66         10          7        256       2456   spi3.o
       212         24         14          0          0       1512   spix.o
       856         22          0          0          0       1927   sram.o
        64         26        392          0      53248        820   startup_stm32f40_41xxx.o
      4180         96          0         16         12      20931   stm32f4x7_eth.o
      1124         24          0          0          0      10522   stm32f4xx_adc.o
       528          6          0          0          0       4921   stm32f4xx_dac.o
       936         32          0          0          0       6373   stm32f4xx_dma.o
       272         10          0          0          0       2267   stm32f4xx_exti.o
      1480         18         28          0          0       5638   stm32f4xx_fsmc.o
       660         44          0          0          0       4033   stm32f4xx_gpio.o
        96         20          0          0          0       1147   stm32f4xx_it.o
      1628         52          0         16          0      12976   stm32f4xx_rcc.o
      1152         36          0          0          0       6789   stm32f4xx_spi.o
       148         12          0          0          0       1693   stm32f4xx_syscfg.o
      3234         60          0          0          0      22892   stm32f4xx_tim.o
      1108         34          0          0          0       7764   stm32f4xx_usart.o
       896         84          4          0        172       8153   sys_arch.o
        16          0          0          0          0        428   sysdef.o
       288         36          0          0          0       1526   sysmng.o
       516         50          0         20          0       1791   system_stm32f4xx.o
      3568        132        197         36          0      21367   tcp.o
      4768        230          0         32         16      14583   tcp_in.o
      3118          8          0          0          0       9643   tcp_out.o
      2228        280         40         28       2568      17903   tcp_server.o
       736         46          0          8         36       9908   tcpip.o
       760         28          0         32          0       3507   time.o
       552         28          0          8          0       3195   timers.o
       844         38          0          6          0       3685   uart1.o
       688         32          0          6          0       3378   uart2.o
       876         50          0         10        255       4369   uart3.o
       680         42          0         16         32       3849   uart4.o
       692         32          0         10         16       3500   uart5.o
       876         48          0         24          0       4206   uart6.o
      1176         88         58         72          0       4655   uartx.o
      1092         20          0          8          0       6758   udp.o
       740        114          0          1        684       5823   udpmain.o
      1370         36         21          0          0       3880   universalscom.o
      1808        138        204          4          0       7589   var.o
      5856         78         36          0          0      15533   varexp.o
      2590        134        158         36        592       9855   worker.o

    ----------------------------------------------------------------------
    160636       7020      56280       1480    1174792    1245352   Object Totals
         0          0         32          0          0          0   (incl. Generated)
        24          0         14         37          2          0   (incl. Padding)

    ----------------------------------------------------------------------

      Code (inc. data)   RO Data    RW Data    ZI Data      Debug   Library Member Name

        90          0          0          0          0          0   __dczerorl2.o
         8          0          0          0          0         68   __main.o
       392          4         17          0          0         92   __printf_flags_ss_wp.o
        14          0          0          0          0         68   __printf_wp.o
         0          0          0          0          0          0   __rtentry.o
        12          0          0          0          0          0   __rtentry2.o
         6          0          0          0          0          0   __rtentry4.o
        52          8          0          0          0          0   __scatter.o
        28          0          0          0          0          0   __scatter_zi.o
        28          0          0          0          0         68   _chval.o
        44          0          0          0          0        108   _printf_char.o
        48          6          0          0          0         96   _printf_char_common.o
         6          0          0          0          0          0   _printf_d.o
       120         16          0          0          0         92   _printf_dec.o
         6          0          0          0          0          0   _printf_f.o
      1054          0          0          0          0        216   _printf_fp_dec.o
       128         16          0          0          0         84   _printf_fp_infnan.o
        88          4         40          0          0         88   _printf_hex_int.o
       178          0          0          0          0         88   _printf_intcommon.o
        78          0          0          0          0        108   _printf_pad.o
         0          0          0          0          0          0   _printf_percent.o
         4          0          0          0          0          0   _printf_percent_end.o
         6          0          0          0          0          0   _printf_s.o
        82          0          0          0          0         80   _printf_str.o
         6          0          0          0          0          0   _printf_x.o
        22          0          0          0          0        100   _rserrno.o
        64          0          0          0          0         84   _sgetc.o
        10          0          0          0          0         68   _sputc.o
       158          0          0          0          0         92   _strtoul.o
        16          0          0          0          0         68   aeabi_memset.o
        26          0          0          0          0         80   atoi.o
       228          4        148          0          0         96   bigflt0.o
      2152        136          0          0          0        960   btod.o
        10          0          0          0          0         68   defsig_exit.o
        50          0          0          0          0         88   defsig_general.o
        80         58          0          0          0         76   defsig_rtmem_inner.o
        14          0          0          0          0         80   defsig_rtmem_outer.o
        18          0          0          0          0         80   exit.o
        94          0          0          0          0         80   h1_alloc.o
        52          0          0          0          0         68   h1_extend.o
        78          0          0          0          0         80   h1_free.o
        14          0          0          0          0         84   h1_init.o
       184          0          0          0          0         92   h1_realloc.o
         6          0          0          0          0        152   heapauxi.o
         4          0          0          0          0        136   hguard.o
         0          0          0          0          0          0   indicate_semi.o
       138          0          0          0          0        168   init_alloc.o
        18          0          0          0          0         76   isspace.o
        44         10        272          0          0         76   lc_ctype_c.o
        44         10         28          0          0         76   lc_numeric_c.o
         2          0          0          0          0          0   libinit.o
        38          0          0          0          0          0   libinit2.o
         2          0          0          0          0          0   libshutdown.o
         2          0          0          0          0          0   libshutdown2.o
         8          4          0          0         96         68   libspace.o
        38          0          0          0          0         68   llshl.o
       138          0          0          0          0         80   lludiv10.o
       238          0          0          0          0        100   lludivv7m.o
         0          0          0          0          0          0   maybetermalloc1.o
        88          0          0          0          0         76   memcmp.o
        40          6          0          0          0         84   noretval__2sprintf.o
        16          4          0          0          0         76   rt_ctype_table.o
         8          4          0          0          0         68   rt_errno_addr_intlibspace.o
         8          4          0          0          0         68   rt_heap_descriptor_intlibspace.o
         8          4          0          0          0         68   rt_locale_intlibspace.o
        68          0          0          0          0         68   rt_memclr.o
        78          0          0          0          0         80   rt_memclr_w.o
       138          0          0          0          0         68   rt_memcpy_v6.o
       100          0          0          0          0         80   rt_memcpy_w.o
         2          0          0          0          0          0   rtexit.o
        10          0          0          0          0          0   rtexit2.o
      1272         16          0          0          0        168   scanf_fp.o
       800         14          0          0          0        100   scanf_hexfp.o
       308         16          0          0          0        100   scanf_infnan.o
        20          0          0          0          0         68   strchr.o
       128          0          0          0          0         68   strcmpv7m.o
        62          0          0          0          0         76   strlen.o
       150          0          0          0          0         80   strncmp.o
        36          0          0          0          0         80   strstr.o
       164         14          0          0          0        120   strtod.o
       112          0          0          0          0         88   strtol.o
        12          4          0          0          0         68   sys_exit.o
        74          0          0          0          0         80   sys_stackheap_outer.o
        14          0          0          0          0         76   sys_wrch.o
         2          0          0          0          0         68   use_no_semi.o
        98          4          0          0          0         92   d2f.o
       826         16          0          0          0        348   daddsub_clz.o
        16          4          0          0          0         68   dcheck1.o
        24          0          0          0          0         68   dcmpi.o
       688        140          0          0          0        208   ddiv.o
       120          4          0          0          0         92   deqf.o
        94          4          0          0          0         92   dfix.o
        90          4          0          0          0         92   dfixu.o
        84          0          0          0          0        136   dflt_clz.o
       120          4          0          0          0         92   dleqf.o
       340         12          0          0          0        104   dmul.o
       156          4          0          0          0         92   dnaninf.o
        12          0          0          0          0         68   dretinf.o
       108          0          0          0          0         80   drleqf.o
       408         56          0          0          0        120   dsqrt_umaal.o
        86          4          0          0          0         84   f2d.o
       450          8          0          0          0        236   faddsub_clz.o
        24          0          0          0          0         68   fcmpi.o
       388         76          0          0          0         96   fdiv.o
       104          4          0          0          0         84   feqf.o
        54          4          0          0          0         84   ffix.o
        62          4          0          0          0         84   ffixu.o
        86          0          0          0          0        136   fflt_clz.o
       104          4          0          0          0         84   fleqf.o
       258          4          0          0          0         84   fmul.o
       140          4          0          0          0         84   fnaninf.o
         0          0         16          0          0          0   fpconst.o
        10          0          0          0          0         68   fretinf.o
        98          0          0          0          0         68   frleqf.o
         6          0          0          0          0         68   istatus.o
         4          0          0          0          0         68   printf1.o
       100          0          0          0          0         68   retnan.o
        92          0          0          0          0         68   scalbn.o
         4          0          0          0          0         68   scanf1.o
         8          0          0          0          0         84   scanf2.o
        48          0          0          0          0         68   trapv.o
         0          0          0          0          0          0   usenofp.o
        42          0          0          0          0         84   atof.o
        30          6          0          0          0        136   dunder.o
        40          0          0          0          0         68   fpclassify.o
        88          8          0          0          0         76   frexp.o
       138          0          0          0          0        160   ldexp.o
       204          4          0          0          0        168   narrow.o
        76          0          0          0          0         84   sqrt.o

    ----------------------------------------------------------------------
     16156        746        524          0         96      10856   Library Totals
        42          2          3          0          0          0   (incl. Padding)

    ----------------------------------------------------------------------

      Code (inc. data)   RO Data    RW Data    ZI Data      Debug   Library Name

     10186        362        505          0         96       6576   c_w.l
      5310        364         16          0          0       3504   fz_ws.l
       618         18          0          0          0        776   m_ws.l

    ----------------------------------------------------------------------
     16156        746        524          0         96      10856   Library Totals

    ----------------------------------------------------------------------

==============================================================================


      Code (inc. data)   RO Data    RW Data    ZI Data      Debug   

    176792       7766      56804       1480    1174888    1238888   Grand Totals
    176792       7766      56804        512    1174888    1238888   ELF Image Totals (compressed)
    176792       7766      56804        512          0          0   ROM Totals

==============================================================================

    Total RO  Size (Code + RO Data)               233596 ( 228.12kB)
    Total RW  Size (RW Data + ZI Data)           1176368 (1148.80kB)
    Total ROM Size (Code + RO Data + RW Data)     234108 ( 228.62kB)

==============================================================================

